; ModuleID = 'C:/temp/fifodma5560/HDL/ip_repo/DMATDCZynq/DMATDCZynq/solution1/.autopilot/db/a.o.3.bc'
target datalayout = "e-p:64:64:64-i1:8:8-i8:8:8-i16:16:16-i32:32:32-i64:64:64-f32:32:32-f64:64:64-v64:64:64-v128:128:128-a0:0:64-s0:64:64-f80:128:128-n8:16:32:64-S128"
target triple = "x86_64-w64-mingw32"

@swap_timeout = internal unnamed_addr global i1 false, align 1 ; [#uses=2 type=i1*]
@out_counter = internal unnamed_addr global i64 0, align 8 ; [#uses=3 type=i64*]
@obuffer_ack = internal unnamed_addr global i32 0, align 4 ; [#uses=3 type=i32*]
@memcpy_OC_a_OC_V_OC_s = internal unnamed_addr constant [12 x i8] c"memcpy.a.V.\00" ; [#uses=1 type=[12 x i8]*]
@lost_counter = internal unnamed_addr global i64 0, align 8 ; [#uses=3 type=i64*]
@llvm_global_ctors_1 = appending global [0 x void ()*] zeroinitializer ; [#uses=0 type=[0 x void ()*]*]
@llvm_global_ctors_0 = appending global [0 x i32] zeroinitializer ; [#uses=0 type=[0 x i32]*]
@inbuffer_pointer = internal unnamed_addr global i32 0, align 4 ; [#uses=2 type=i32*]
@inbuffer_V = internal unnamed_addr global [4096 x i32] zeroinitializer ; [#uses=3 type=[4096 x i32]*]
@data_mover_str = internal unnamed_addr constant [11 x i8] c"data_mover\00" ; [#uses=1 type=[11 x i8]*]
@burstwrite_OC_region = internal unnamed_addr constant [18 x i8] c"burstwrite.region\00" ; [#uses=2 type=[18 x i8]*]
@buftimeout = internal unnamed_addr global i32 0, align 4 ; [#uses=2 type=i32*]
@bufstatus_1 = internal unnamed_addr global i1 false ; [#uses=2 type=i1*]
@bufstatus_0 = internal unnamed_addr global i1 false ; [#uses=2 type=i1*]
@bufsel = internal unnamed_addr global i1 false   ; [#uses=3 type=i1*]
@buf_p = internal unnamed_addr global i32 0, align 4 ; [#uses=2 type=i32*]
@bsq_1 = internal unnamed_addr global i64 0       ; [#uses=2 type=i64*]
@bsq_0 = internal unnamed_addr global i64 0       ; [#uses=2 type=i64*]
@bsc = internal unnamed_addr global i64 0, align 8 ; [#uses=3 type=i64*]
@RAM_1P_str = internal unnamed_addr constant [7 x i8] c"RAM_1P\00" ; [#uses=3 type=[7 x i8]*]
@p_str9 = internal unnamed_addr constant [1 x i8] zeroinitializer ; [#uses=7 type=[1 x i8]*]
@p_str8 = private unnamed_addr constant [13 x i8] c"ap_ctrl_none\00", align 1 ; [#uses=1 type=[13 x i8]*]
@p_str7 = private unnamed_addr constant [6 x i8] c"m_axi\00", align 1 ; [#uses=1 type=[6 x i8]*]
@p_str6 = private unnamed_addr constant [5 x i8] c"both\00", align 1 ; [#uses=1 type=[5 x i8]*]
@p_str5 = private unnamed_addr constant [5 x i8] c"axis\00", align 1 ; [#uses=1 type=[5 x i8]*]
@p_str4 = private unnamed_addr constant [5 x i8] c"axil\00", align 1 ; [#uses=7 type=[5 x i8]*]
@p_str3 = private unnamed_addr constant [10 x i8] c"s_axilite\00", align 1 ; [#uses=7 type=[10 x i8]*]
@p_str21 = internal unnamed_addr constant [1 x i8] zeroinitializer ; [#uses=1 type=[1 x i8]*]
@p_str2 = private unnamed_addr constant [8 x i8] c"ap_ovld\00", align 1 ; [#uses=6 type=[8 x i8]*]
@p_str11 = internal unnamed_addr constant [1 x i8] zeroinitializer ; [#uses=7 type=[1 x i8]*]
@p_str10 = internal unnamed_addr constant [1 x i8] zeroinitializer ; [#uses=7 type=[1 x i8]*]
@p_str1 = private unnamed_addr constant [1 x i8] zeroinitializer, align 1 ; [#uses=94 type=[1 x i8]*]
@p_str = private unnamed_addr constant [8 x i8] c"ap_none\00", align 1 ; [#uses=1 type=[8 x i8]*]

; [#uses=1]
declare i64 @llvm.part.select.i64(i64, i32, i32) nounwind readnone

; [#uses=1]
declare i32 @llvm.part.select.i32(i32, i32, i32) nounwind readnone

; [#uses=24]
declare void @llvm.dbg.value(metadata, i64, metadata) nounwind readnone

; [#uses=1]
declare void @llvm.dbg.declare(metadata, metadata) nounwind readnone

; [#uses=0]
define void @data_mover(i32* %a_V, i64* %stream0_V_V, i32* %buffer_status, i32 %buffer_ack, [2 x i64]* %buffer_seq, [2 x i32]* %bufsize, i32* %debug_buffer_status, i32* %debug_bufsel_0, i32* %debug_buf0_p, i32* %debug_inbuffer_pointer, i64* %debug_dst_var_V, i1 zeroext %run, i1* %fifo_resetn, i32 %DDROFFSET_V, [4 x i64]* %stat_counter, i1* %interrupt_r) {
.preheader96.preheader:
  call void (...)* @_ssdm_op_SpecBitsMap(i32* %a_V), !map !60
  call void (...)* @_ssdm_op_SpecBitsMap(i64* %stream0_V_V), !map !66
  call void (...)* @_ssdm_op_SpecBitsMap(i32* %buffer_status), !map !70
  call void (...)* @_ssdm_op_SpecBitsMap(i32 %buffer_ack), !map !74
  call void (...)* @_ssdm_op_SpecBitsMap([2 x i64]* %buffer_seq), !map !80
  call void (...)* @_ssdm_op_SpecBitsMap([2 x i32]* %bufsize), !map !86
  call void (...)* @_ssdm_op_SpecBitsMap(i32* %debug_buffer_status), !map !90
  call void (...)* @_ssdm_op_SpecBitsMap(i32* %debug_bufsel_0), !map !94
  call void (...)* @_ssdm_op_SpecBitsMap(i32* %debug_buf0_p), !map !98
  call void (...)* @_ssdm_op_SpecBitsMap(i32* %debug_inbuffer_pointer), !map !102
  call void (...)* @_ssdm_op_SpecBitsMap(i64* %debug_dst_var_V), !map !106
  call void (...)* @_ssdm_op_SpecBitsMap(i1 %run), !map !110
  call void (...)* @_ssdm_op_SpecBitsMap(i1* %fifo_resetn), !map !114
  call void (...)* @_ssdm_op_SpecBitsMap(i32 %DDROFFSET_V), !map !118
  call void (...)* @_ssdm_op_SpecBitsMap([4 x i64]* %stat_counter), !map !122
  call void (...)* @_ssdm_op_SpecBitsMap(i1* %interrupt_r), !map !128
  %DDROFFSET_V_read = call i32 @_ssdm_op_Read.s_axilite.i32(i32 %DDROFFSET_V) ; [#uses=1 type=i32]
  %run_read = call i1 @_ssdm_op_Read.s_axilite.i1(i1 %run) ; [#uses=1 type=i1]
  call void @llvm.dbg.value(metadata !{i1 %run_read}, i64 0, metadata !132), !dbg !1540 ; [debug line = 29:11] [debug variable = run]
  %buffer_ack_read = call i32 @_ssdm_op_Read.s_axilite.i32(i32 %buffer_ack) ; [#uses=3 type=i32]
  call void @llvm.dbg.value(metadata !{i32 %buffer_ack_read}, i64 0, metadata !1541), !dbg !1542 ; [debug line = 21:10] [debug variable = buffer_ack]
  %stat_counter_addr = getelementptr [4 x i64]* %stat_counter, i64 0, i64 0 ; [#uses=1 type=i64*]
  call void (...)* @_ssdm_op_SpecTopModule([11 x i8]* @data_mover_str) nounwind
  call void @llvm.dbg.value(metadata !{i32* %a_V}, i64 0, metadata !1543), !dbg !1552 ; [debug line = 18:37] [debug variable = a.V]
  call void @llvm.dbg.declare(metadata !{i64* %stream0_V_V}, metadata !1553), !dbg !1563 ; [debug line = 19:23] [debug variable = stream0.V.V]
  call void @llvm.dbg.value(metadata !{i32* %buffer_status}, i64 0, metadata !1564), !dbg !1565 ; [debug line = 20:11] [debug variable = buffer_status]
  call void @llvm.dbg.value(metadata !{i32 %buffer_ack}, i64 0, metadata !1541), !dbg !1542 ; [debug line = 21:10] [debug variable = buffer_ack]
  call void @llvm.dbg.value(metadata !{[2 x i64]* %buffer_seq}, i64 0, metadata !1566), !dbg !1570 ; [debug line = 22:15] [debug variable = buffer_seq]
  call void @llvm.dbg.value(metadata !{[2 x i32]* %bufsize}, i64 0, metadata !1571), !dbg !1573 ; [debug line = 23:15] [debug variable = bufsize]
  call void @llvm.dbg.value(metadata !{i32* %debug_buffer_status}, i64 0, metadata !1574), !dbg !1575 ; [debug line = 24:11] [debug variable = debug_buffer_status]
  call void @llvm.dbg.value(metadata !{i32* %debug_bufsel_0}, i64 0, metadata !1576), !dbg !1577 ; [debug line = 25:11] [debug variable = debug_bufsel_0]
  call void @llvm.dbg.value(metadata !{i32* %debug_buf0_p}, i64 0, metadata !1578), !dbg !1579 ; [debug line = 26:11] [debug variable = debug_buf0_p]
  call void @llvm.dbg.value(metadata !{i32* %debug_inbuffer_pointer}, i64 0, metadata !1580), !dbg !1581 ; [debug line = 27:11] [debug variable = debug_inbuffer_pointer]
  call void @llvm.dbg.value(metadata !{i64* %debug_dst_var_V}, i64 0, metadata !1582), !dbg !1585 ; [debug line = 28:16] [debug variable = debug_dst_var.V]
  call void @llvm.dbg.value(metadata !{i1 %run}, i64 0, metadata !132), !dbg !1540 ; [debug line = 29:11] [debug variable = run]
  call void @llvm.dbg.value(metadata !{i1* %fifo_resetn}, i64 0, metadata !1586), !dbg !1587 ; [debug line = 30:12] [debug variable = fifo_resetn]
  call void @llvm.dbg.value(metadata !{[4 x i64]* %stat_counter}, i64 0, metadata !1588), !dbg !1592 ; [debug line = 32:15] [debug variable = stat_counter]
  call void @llvm.dbg.value(metadata !{i1* %interrupt_r}, i64 0, metadata !1593), !dbg !1594 ; [debug line = 33:12] [debug variable = interrupt_r]
  call void (...)* @_ssdm_op_SpecInterface(i1* %fifo_resetn, [8 x i8]* @p_str, i32 0, i32 0, [1 x i8]* @p_str1, i32 0, i32 0, [1 x i8]* @p_str1, [1 x i8]* @p_str1, [1 x i8]* @p_str1, i32 0, i32 0, i32 0, i32 0, [1 x i8]* @p_str1, [1 x i8]* @p_str1) nounwind, !dbg !1595 ; [debug line = 37:1]
  call void (...)* @_ssdm_op_SpecInterface(i1* %interrupt_r, [8 x i8]* @p_str2, i32 0, i32 0, [1 x i8]* @p_str1, i32 0, i32 0, [1 x i8]* @p_str1, [1 x i8]* @p_str1, [1 x i8]* @p_str1, i32 0, i32 0, i32 0, i32 0, [1 x i8]* @p_str1, [1 x i8]* @p_str1) nounwind, !dbg !1595 ; [debug line = 37:1]
  %empty = call i32 (...)* @_ssdm_op_SpecMemCore([4 x i64]* %stat_counter, [1 x i8]* @p_str11, [7 x i8]* @RAM_1P_str, [1 x i8]* @p_str11, i32 -1, [1 x i8]* @p_str11, [1 x i8]* @p_str11, [1 x i8]* @p_str11, [1 x i8]* @p_str11, [1 x i8]* @p_str11) ; [#uses=0 type=i32]
  call void (...)* @_ssdm_op_SpecInterface([4 x i64]* %stat_counter, [10 x i8]* @p_str3, i32 0, i32 0, [1 x i8]* @p_str1, i32 0, i32 0, [5 x i8]* @p_str4, [1 x i8]* @p_str1, [1 x i8]* @p_str1, i32 0, i32 0, i32 0, i32 0, [1 x i8]* @p_str1, [1 x i8]* @p_str1) nounwind
  call void (...)* @_ssdm_op_SpecInterface(i32 %DDROFFSET_V, [10 x i8]* @p_str3, i32 0, i32 0, [1 x i8]* @p_str1, i32 0, i32 0, [5 x i8]* @p_str4, [1 x i8]* @p_str1, [1 x i8]* @p_str1, i32 0, i32 0, i32 0, i32 0, [1 x i8]* @p_str1, [1 x i8]* @p_str1) nounwind, !dbg !1595 ; [debug line = 37:1]
  call void (...)* @_ssdm_op_SpecInterface(i1 %run, [10 x i8]* @p_str3, i32 0, i32 0, [1 x i8]* @p_str1, i32 0, i32 0, [5 x i8]* @p_str4, [1 x i8]* @p_str1, [1 x i8]* @p_str1, i32 0, i32 0, i32 0, i32 0, [1 x i8]* @p_str1, [1 x i8]* @p_str1) nounwind, !dbg !1595 ; [debug line = 37:1]
  call void (...)* @_ssdm_op_SpecInterface(i64* %debug_dst_var_V, [8 x i8]* @p_str2, i32 0, i32 0, [1 x i8]* @p_str1, i32 0, i32 0, [1 x i8]* @p_str1, [1 x i8]* @p_str1, [1 x i8]* @p_str1, i32 0, i32 0, i32 0, i32 0, [1 x i8]* @p_str1, [1 x i8]* @p_str1) nounwind, !dbg !1595 ; [debug line = 37:1]
  call void (...)* @_ssdm_op_SpecInterface(i32* %debug_inbuffer_pointer, [8 x i8]* @p_str2, i32 0, i32 0, [1 x i8]* @p_str1, i32 0, i32 0, [1 x i8]* @p_str1, [1 x i8]* @p_str1, [1 x i8]* @p_str1, i32 0, i32 0, i32 0, i32 0, [1 x i8]* @p_str1, [1 x i8]* @p_str1) nounwind, !dbg !1595 ; [debug line = 37:1]
  call void (...)* @_ssdm_op_SpecInterface(i32* %debug_buf0_p, [8 x i8]* @p_str2, i32 0, i32 0, [1 x i8]* @p_str1, i32 0, i32 0, [1 x i8]* @p_str1, [1 x i8]* @p_str1, [1 x i8]* @p_str1, i32 0, i32 0, i32 0, i32 0, [1 x i8]* @p_str1, [1 x i8]* @p_str1) nounwind, !dbg !1595 ; [debug line = 37:1]
  call void (...)* @_ssdm_op_SpecInterface(i32* %debug_bufsel_0, [8 x i8]* @p_str2, i32 0, i32 0, [1 x i8]* @p_str1, i32 0, i32 0, [1 x i8]* @p_str1, [1 x i8]* @p_str1, [1 x i8]* @p_str1, i32 0, i32 0, i32 0, i32 0, [1 x i8]* @p_str1, [1 x i8]* @p_str1) nounwind, !dbg !1595 ; [debug line = 37:1]
  call void (...)* @_ssdm_op_SpecInterface(i32* %debug_buffer_status, [8 x i8]* @p_str2, i32 0, i32 0, [1 x i8]* @p_str1, i32 0, i32 0, [1 x i8]* @p_str1, [1 x i8]* @p_str1, [1 x i8]* @p_str1, i32 0, i32 0, i32 0, i32 0, [1 x i8]* @p_str1, [1 x i8]* @p_str1) nounwind, !dbg !1595 ; [debug line = 37:1]
  %empty_7 = call i32 (...)* @_ssdm_op_SpecMemCore([2 x i32]* %bufsize, [1 x i8]* @p_str10, [7 x i8]* @RAM_1P_str, [1 x i8]* @p_str10, i32 -1, [1 x i8]* @p_str10, [1 x i8]* @p_str10, [1 x i8]* @p_str10, [1 x i8]* @p_str10, [1 x i8]* @p_str10) ; [#uses=0 type=i32]
  call void (...)* @_ssdm_op_SpecInterface([2 x i32]* %bufsize, [10 x i8]* @p_str3, i32 0, i32 0, [1 x i8]* @p_str1, i32 0, i32 0, [5 x i8]* @p_str4, [1 x i8]* @p_str1, [1 x i8]* @p_str1, i32 0, i32 0, i32 0, i32 0, [1 x i8]* @p_str1, [1 x i8]* @p_str1) nounwind
  %empty_8 = call i32 (...)* @_ssdm_op_SpecMemCore([2 x i64]* %buffer_seq, [1 x i8]* @p_str9, [7 x i8]* @RAM_1P_str, [1 x i8]* @p_str9, i32 -1, [1 x i8]* @p_str9, [1 x i8]* @p_str9, [1 x i8]* @p_str9, [1 x i8]* @p_str9, [1 x i8]* @p_str9) ; [#uses=0 type=i32]
  call void (...)* @_ssdm_op_SpecInterface([2 x i64]* %buffer_seq, [10 x i8]* @p_str3, i32 0, i32 0, [1 x i8]* @p_str1, i32 0, i32 0, [5 x i8]* @p_str4, [1 x i8]* @p_str1, [1 x i8]* @p_str1, i32 0, i32 0, i32 0, i32 0, [1 x i8]* @p_str1, [1 x i8]* @p_str1) nounwind
  call void (...)* @_ssdm_op_SpecInterface(i32 %buffer_ack, [10 x i8]* @p_str3, i32 0, i32 0, [1 x i8]* @p_str1, i32 0, i32 0, [5 x i8]* @p_str4, [1 x i8]* @p_str1, [1 x i8]* @p_str1, i32 0, i32 0, i32 0, i32 0, [1 x i8]* @p_str1, [1 x i8]* @p_str1) nounwind, !dbg !1595 ; [debug line = 37:1]
  call void (...)* @_ssdm_op_SpecInterface(i32* %buffer_status, [10 x i8]* @p_str3, i32 0, i32 0, [1 x i8]* @p_str1, i32 0, i32 0, [5 x i8]* @p_str4, [1 x i8]* @p_str1, [1 x i8]* @p_str1, i32 0, i32 0, i32 0, i32 0, [1 x i8]* @p_str1, [1 x i8]* @p_str1) nounwind, !dbg !1595 ; [debug line = 37:1]
  call void (...)* @_ssdm_op_SpecInterface(i64* %stream0_V_V, [5 x i8]* @p_str5, i32 1, i32 1, [5 x i8]* @p_str6, i32 0, i32 0, [1 x i8]* @p_str1, [1 x i8]* @p_str1, [1 x i8]* @p_str1, i32 0, i32 0, i32 0, i32 0, [1 x i8]* @p_str1, [1 x i8]* @p_str1) nounwind, !dbg !1595 ; [debug line = 37:1]
  call void (...)* @_ssdm_op_SpecInterface(i32* %a_V, [6 x i8]* @p_str7, i32 0, i32 0, [1 x i8]* @p_str1, i32 0, i32 32, [1 x i8]* @p_str1, [1 x i8]* @p_str1, [1 x i8]* @p_str1, i32 16, i32 16, i32 16, i32 16, [1 x i8]* @p_str1, [1 x i8]* @p_str1) nounwind, !dbg !1595 ; [debug line = 37:1]
  call void (...)* @_ssdm_op_SpecInterface(i32 0, [13 x i8]* @p_str8, i32 0, i32 0, [1 x i8]* @p_str1, i32 0, i32 0, [1 x i8]* @p_str1, [1 x i8]* @p_str1, [1 x i8]* @p_str1, i32 0, i32 0, i32 0, i32 0, [1 x i8]* @p_str1, [1 x i8]* @p_str1) nounwind, !dbg !1595 ; [debug line = 37:1]
  %bufstatus_0_load = load i1* @bufstatus_0, align 1, !dbg !1597 ; [#uses=4 type=i1] [debug line = 65:2]
  %bufstatus_1_load = load i1* @bufstatus_1, align 1, !dbg !1597 ; [#uses=4 type=i1] [debug line = 65:2]
  %inbuffer_pointer_loa = load i32* @inbuffer_pointer, align 4, !dbg !1599 ; [#uses=5 type=i32] [debug line = 71:4]
  %out_counter_load = load i64* @out_counter, align 8, !dbg !1602 ; [#uses=3 type=i64] [debug line = 85:5]
  %lost_counter_load = load i64* @lost_counter, align 8, !dbg !1603 ; [#uses=4 type=i64] [debug line = 98:5]
  %buftimeout_load = load i32* @buftimeout, align 4, !dbg !1605 ; [#uses=2 type=i32] [debug line = 166:2]
  br i1 %run_read, label %0, label %3, !dbg !1606 ; [debug line = 60:2]

; <label>:0                                       ; preds = %.preheader96.preheader
  %bufsel_load = load i1* @bufsel, align 1        ; [#uses=9 type=i1]
  %tmp_3 = zext i1 %bufsel_load to i64, !dbg !1597 ; [#uses=1 type=i64] [debug line = 65:2]
  %bufstatus_load_phi = select i1 %bufsel_load, i1 %bufstatus_1_load, i1 %bufstatus_0_load, !dbg !1597 ; [#uses=2 type=i1] [debug line = 65:2]
  %swap_timeout_load = load i1* @swap_timeout, align 1, !dbg !1607 ; [#uses=2 type=i1] [debug line = 102:2]
  %buf_p_load = load i32* @buf_p, align 4, !dbg !1608 ; [#uses=3 type=i32] [debug line = 105:9]
  br i1 %bufstatus_load_phi, label %.critedge, label %1, !dbg !1597 ; [debug line = 65:2]

; <label>:1                                       ; preds = %0
  call void @llvm.dbg.value(metadata !{i64* %stream0_V_V}, i64 0, metadata !1610), !dbg !1615 ; [debug line = 112:48@68:8] [debug variable = stream<ap_uint<64> >.V.V]
  %tmp = call i1 @_ssdm_op_NbReadReq.axis.i64P(i64* %stream0_V_V, i32 1), !dbg !1617 ; [#uses=1 type=i1] [debug line = 113:20@68:8]
  call void @llvm.dbg.value(metadata !{i1 %tmp}, i64 0, metadata !1619), !dbg !1617 ; [debug line = 113:20@68:8] [debug variable = tmp]
  br i1 %tmp, label %2, label %.critedge93, !dbg !1616 ; [debug line = 68:8]

; <label>:2                                       ; preds = %1
  call void @llvm.dbg.value(metadata !{i64* %stream0_V_V}, i64 0, metadata !1620), !dbg !1624 ; [debug line = 123:48@70:4] [debug variable = stream<ap_uint<64> >.V.V]
  %tmp_V = call i64 @_ssdm_op_Read.axis.volatile.i64P(i64* %stream0_V_V), !dbg !1626 ; [#uses=3 type=i64] [debug line = 125:9@70:4]
  call void @llvm.dbg.value(metadata !{i64 %tmp_V}, i64 0, metadata !1628), !dbg !1626 ; [debug line = 125:9@70:4] [debug variable = tmp.V]
  call void @llvm.dbg.value(metadata !{i64 %tmp_V}, i64 0, metadata !1630), !dbg !1632 ; [debug line = 281:5@126:9@70:4] [debug variable = dst_var.V]
  %tmp_7 = add nsw i32 1, %inbuffer_pointer_loa, !dbg !1599 ; [#uses=1 type=i32] [debug line = 71:4]
  %tmp_8 = sext i32 %inbuffer_pointer_loa to i64, !dbg !1599 ; [#uses=1 type=i64] [debug line = 71:4]
  call void @llvm.dbg.value(metadata !{i64 %tmp_V}, i64 0, metadata !1636), !dbg !1640 ; [debug line = 941:79@1538:15@200:100@200:101@71:35] [debug variable = __Val2__]
  %tmp_13 = trunc i64 %tmp_V to i32, !dbg !1651   ; [#uses=1 type=i32] [debug line = 941:81@1538:15@200:100@200:101@71:35]
  %inbuffer_V_addr = getelementptr [4096 x i32]* @inbuffer_V, i64 0, i64 %tmp_8, !dbg !1652 ; [#uses=1 type=i32*] [debug line = 281:5@71:35]
  store i32 %tmp_13, i32* %inbuffer_V_addr, align 4, !dbg !1652 ; [debug line = 281:5@71:35]
  %tmp_9 = add nsw i32 2, %inbuffer_pointer_loa, !dbg !1655 ; [#uses=3 type=i32] [debug line = 72:4]
  %tmp_s = sext i32 %tmp_7 to i64, !dbg !1655     ; [#uses=1 type=i64] [debug line = 72:4]
  %p_Result_1 = call i32 @_ssdm_op_PartSelect.i32.i64.i32.i32(i64 %tmp_V, i32 32, i32 63), !dbg !1656 ; [#uses=1 type=i32] [debug line = 941:81@1538:15@200:100@200:101@72:35]
  %inbuffer_V_addr_1 = getelementptr [4096 x i32]* @inbuffer_V, i64 0, i64 %tmp_s, !dbg !1661 ; [#uses=1 type=i32*] [debug line = 281:5@72:35]
  store i32 %p_Result_1, i32* %inbuffer_V_addr_1, align 4, !dbg !1661 ; [debug line = 281:5@72:35]
  call void @_ssdm_op_Write.ap_ovld.i32P(i32* %debug_inbuffer_pointer, i32 %tmp_9), !dbg !1662 ; [debug line = 77:5]
  %tmp_5 = icmp eq i32 %tmp_9, 4096, !dbg !1663   ; [#uses=1 type=i1] [debug line = 80:5]
  %tmp_6 = add i64 1, %out_counter_load, !dbg !1602 ; [#uses=3 type=i64] [debug line = 85:5]
  store i64 %tmp_6, i64* @out_counter, align 8, !dbg !1602 ; [debug line = 85:5]
  call void @llvm.dbg.value(metadata !{i64* %debug_dst_var_V}, i64 0, metadata !1664), !dbg !1667 ; [debug line = 280:50@89:3] [debug variable = ssdm_int<64 + 1024 * 0, false>.V]
  call void @_ssdm_op_Write.ap_ovld.i64P(i64* %debug_dst_var_V, i64 %tmp_V), !dbg !1669 ; [debug line = 281:5@89:3]
  br i1 %tmp_5, label %._crit_edge101, label %.critedge93, !dbg !1607 ; [debug line = 102:2]

.critedge:                                        ; preds = %0
  %tmp_4 = add i64 %lost_counter_load, 1, !dbg !1603 ; [#uses=2 type=i64] [debug line = 98:5]
  store i64 %tmp_4, i64* @lost_counter, align 8, !dbg !1603 ; [debug line = 98:5]
  br label %.critedge93

.critedge93:                                      ; preds = %.critedge, %2, %1
  %inbuffer_pointer_fla = phi i1 [ false, %.critedge ], [ true, %2 ], [ false, %1 ] ; [#uses=1 type=i1]
  %inbuffer_pointer_loc = phi i32 [ %inbuffer_pointer_loa, %.critedge ], [ %tmp_9, %2 ], [ %inbuffer_pointer_loa, %1 ] ; [#uses=2 type=i32]
  %out_counter_loc = phi i64 [ %out_counter_load, %.critedge ], [ %tmp_6, %2 ], [ %out_counter_load, %1 ] ; [#uses=2 type=i64]
  %lost_counter_loc = phi i64 [ %tmp_4, %.critedge ], [ %lost_counter_load, %2 ], [ %lost_counter_load, %1 ] ; [#uses=2 type=i64]
  %swap_timeout_load_no = xor i1 %swap_timeout_load, true, !dbg !1607 ; [#uses=1 type=i1] [debug line = 102:2]
  %brmerge = or i1 %bufstatus_load_phi, %swap_timeout_load_no, !dbg !1607 ; [#uses=1 type=i1] [debug line = 102:2]
  br i1 %brmerge, label %.critedge93._crit_edge103, label %._crit_edge101, !dbg !1607 ; [debug line = 102:2]

._crit_edge101:                                   ; preds = %.critedge93, %2
  %inbuffer_pointer_loc_1 = phi i32 [ %inbuffer_pointer_loc, %.critedge93 ], [ 4096, %2 ] ; [#uses=1 type=i32]
  %out_counter_loc_1 = phi i64 [ %out_counter_loc, %.critedge93 ], [ %tmp_6, %2 ] ; [#uses=2 type=i64]
  %lost_counter_loc_1 = phi i64 [ %lost_counter_loc, %.critedge93 ], [ %lost_counter_load, %2 ] ; [#uses=2 type=i64]
  %tmp_1 = call i30 @_ssdm_op_PartSelect.i30.i32.i32.i32(i32 %DDROFFSET_V_read, i32 2, i32 31), !dbg !1670 ; [#uses=1 type=i30] [debug line = 3426:0@3523:0@105:9]
  call void @llvm.dbg.value(metadata !{i32* %a_V}, i64 0, metadata !1933), !dbg !1941 ; [debug line = 3458:122@105:9] [debug variable = i_op.V]
  %op2_cast = zext i30 %tmp_1 to i31, !dbg !1942  ; [#uses=1 type=i31] [debug line = 3458:215@105:9]
  %tmp_2_cast = sext i32 %buf_p_load to i33, !dbg !1608 ; [#uses=1 type=i33] [debug line = 105:9]
  %tmp_2 = call i23 @_ssdm_op_BitConcatenate.i23.i1.i22(i1 %bufsel_load, i22 0), !dbg !1608 ; [#uses=1 type=i23] [debug line = 105:9]
  %tmp_11_cast = zext i23 %tmp_2 to i31, !dbg !1608 ; [#uses=1 type=i31] [debug line = 105:9]
  %tmp3 = add i31 %tmp_11_cast, %op2_cast, !dbg !1608 ; [#uses=1 type=i31] [debug line = 105:9]
  %tmp3_cast = zext i31 %tmp3 to i33, !dbg !1608  ; [#uses=1 type=i33] [debug line = 105:9]
  %p_sum1 = add i33 %tmp3_cast, %tmp_2_cast, !dbg !1608 ; [#uses=1 type=i33] [debug line = 105:9]
  %p_sum1_cast = sext i33 %p_sum1 to i64, !dbg !1608 ; [#uses=1 type=i64] [debug line = 105:9]
  %a_V_addr = getelementptr i32* %a_V, i64 %p_sum1_cast, !dbg !1608 ; [#uses=3 type=i32*] [debug line = 105:9]
  %a_V_addr_wr_req = call i1 @_ssdm_op_WriteReq.m_axi.i32P(i32* %a_V_addr, i32 4096), !dbg !1608 ; [#uses=0 type=i1] [debug line = 105:9]
  br label %burst.wr.header

burst.wr.header:                                  ; preds = %burst.wr.body, %._crit_edge101
  %indvar = phi i13 [ 0, %._crit_edge101 ], [ %indvar_next, %burst.wr.body ] ; [#uses=3 type=i13]
  %exitcond3 = icmp eq i13 %indvar, -4096         ; [#uses=1 type=i1]
  %indvar_next = add i13 %indvar, 1               ; [#uses=1 type=i13]
  br i1 %exitcond3, label %memcpy.tail, label %burst.wr.body

burst.wr.body:                                    ; preds = %burst.wr.header
  %empty_9 = call i32 (...)* @_ssdm_op_SpecLoopTripCount(i64 4096, i64 4096, i64 4096) ; [#uses=0 type=i32]
  %burstwrite_rbegin = call i32 (...)* @_ssdm_op_SpecRegionBegin([18 x i8]* @burstwrite_OC_region) ; [#uses=1 type=i32]
  %empty_10 = call i32 (...)* @_ssdm_op_SpecPipeline(i32 1, i32 1, i32 1, i32 0, [1 x i8]* @p_str21) ; [#uses=0 type=i32]
  call void (...)* @_ssdm_op_SpecLoopName([12 x i8]* @memcpy_OC_a_OC_V_OC_s)
  %tmp_12 = zext i13 %indvar to i64, !dbg !1608   ; [#uses=1 type=i64] [debug line = 105:9]
  %inbuffer_V_addr_2 = getelementptr [4096 x i32]* @inbuffer_V, i64 0, i64 %tmp_12, !dbg !1608 ; [#uses=1 type=i32*] [debug line = 105:9]
  %inbuffer_V_load = load i32* %inbuffer_V_addr_2, align 4, !dbg !1608 ; [#uses=1 type=i32] [debug line = 105:9]
  call void @_ssdm_op_Write.m_axi.i32P(i32* %a_V_addr, i32 %inbuffer_V_load, i4 -1), !dbg !1608 ; [debug line = 105:9]
  %burstwrite_rend = call i32 (...)* @_ssdm_op_SpecRegionEnd([18 x i8]* @burstwrite_OC_region, i32 %burstwrite_rbegin) ; [#uses=0 type=i32]
  br label %burst.wr.header

memcpy.tail:                                      ; preds = %burst.wr.header
  %a_V_addr_wr_resp = call i1 @_ssdm_op_WriteResp.m_axi.i32P(i32* %a_V_addr), !dbg !1608 ; [#uses=0 type=i1] [debug line = 105:9]
  %tmp_10 = add nsw i32 %buf_p_load, %inbuffer_pointer_loc_1, !dbg !1944 ; [#uses=3 type=i32] [debug line = 113:3]
  %tmp_11 = icmp eq i32 %tmp_10, 4194304, !dbg !1945 ; [#uses=1 type=i1] [debug line = 117:4]
  %brmerge1 = or i1 %swap_timeout_load, %tmp_11, !dbg !1945 ; [#uses=1 type=i1] [debug line = 117:4]
  br i1 %brmerge1, label %._crit_edge105, label %.critedge93._crit_edge103, !dbg !1945 ; [debug line = 117:4]

._crit_edge105:                                   ; preds = %memcpy.tail
  %not_bufsel_load_t = xor i1 %bufsel_load, true, !dbg !1946 ; [#uses=4 type=i1] [debug line = 119:5]
  %bufstatus_0_load_s = or i1 %bufstatus_0_load, %not_bufsel_load_t, !dbg !1946 ; [#uses=1 type=i1] [debug line = 119:5]
  %p_bufstatus_1_load = or i1 %bufstatus_1_load, %bufsel_load, !dbg !1946 ; [#uses=1 type=i1] [debug line = 119:5]
  %bufsize_addr_2 = getelementptr [2 x i32]* %bufsize, i64 0, i64 %tmp_3, !dbg !1948 ; [#uses=1 type=i32*] [debug line = 120:5]
  store i32 %tmp_10, i32* %bufsize_addr_2, align 4, !dbg !1948 ; [debug line = 120:5]
  store i1 %not_bufsel_load_t, i1* @bufsel, align 1, !dbg !1949 ; [debug line = 127:6]
  %bsc_load = load i64* @bsc, align 8, !dbg !1950 ; [#uses=1 type=i64] [debug line = 129:5]
  %tmp_14 = add i64 %bsc_load, 1, !dbg !1950      ; [#uses=3 type=i64] [debug line = 129:5]
  store i64 %tmp_14, i64* @bsc, align 8, !dbg !1950 ; [debug line = 129:5]
  br i1 %bufsel_load, label %branch4, label %branch5, !dbg !1951 ; [debug line = 130:5]

._crit_edge10829:                                 ; preds = %branch5, %branch4
  %bsq_0_load = load i64* @bsq_0, align 16, !dbg !1952 ; [#uses=1 type=i64] [debug line = 133:6]
  %buffer_seq_addr_2 = getelementptr [2 x i64]* %buffer_seq, i64 0, i64 0, !dbg !1952 ; [#uses=1 type=i64*] [debug line = 133:6]
  store i64 %bsq_0_load, i64* %buffer_seq_addr_2, align 8, !dbg !1952 ; [debug line = 133:6]
  %bsq_1_load = load i64* @bsq_1, align 8, !dbg !1952 ; [#uses=1 type=i64] [debug line = 133:6]
  %buffer_seq_addr_3 = getelementptr [2 x i64]* %buffer_seq, i64 0, i64 1, !dbg !1952 ; [#uses=1 type=i64*] [debug line = 133:6]
  store i64 %bsq_1_load, i64* %buffer_seq_addr_3, align 8, !dbg !1952 ; [debug line = 133:6]
  call void @_ssdm_op_Write.ap_ovld.i1P(i1* %interrupt_r, i1 true), !dbg !1955 ; [debug line = 136:5]
  br label %.critedge93._crit_edge103, !dbg !1956 ; [debug line = 137:4]

.critedge93._crit_edge103:                        ; preds = %._crit_edge10829, %memcpy.tail, %.critedge93
  %bufstatus_0_flag_1 = phi i1 [ false, %.critedge93 ], [ %not_bufsel_load_t, %._crit_edge10829 ], [ false, %memcpy.tail ] ; [#uses=1 type=i1]
  %bufstatus_0_loc_1 = phi i1 [ %bufstatus_0_load, %.critedge93 ], [ %bufstatus_0_load_s, %._crit_edge10829 ], [ %bufstatus_0_load, %memcpy.tail ] ; [#uses=2 type=i1]
  %bufstatus_1_flag_1 = phi i1 [ false, %.critedge93 ], [ %bufsel_load, %._crit_edge10829 ], [ false, %memcpy.tail ] ; [#uses=1 type=i1]
  %bufstatus_1_loc_1 = phi i1 [ %bufstatus_1_load, %.critedge93 ], [ %p_bufstatus_1_load, %._crit_edge10829 ], [ %bufstatus_1_load, %memcpy.tail ] ; [#uses=2 type=i1]
  %inbuffer_pointer_fla_1 = phi i1 [ %inbuffer_pointer_fla, %.critedge93 ], [ true, %._crit_edge10829 ], [ true, %memcpy.tail ] ; [#uses=1 type=i1]
  %inbuffer_pointer_new_1 = phi i32 [ %inbuffer_pointer_loc, %.critedge93 ], [ 0, %._crit_edge10829 ], [ 0, %memcpy.tail ] ; [#uses=1 type=i32]
  %out_counter_loc_2 = phi i64 [ %out_counter_loc, %.critedge93 ], [ %out_counter_loc_1, %._crit_edge10829 ], [ %out_counter_loc_1, %memcpy.tail ] ; [#uses=1 type=i64]
  %lost_counter_loc_2 = phi i64 [ %lost_counter_loc, %.critedge93 ], [ %lost_counter_loc_1, %._crit_edge10829 ], [ %lost_counter_loc_1, %memcpy.tail ] ; [#uses=1 type=i64]
  %swap_timeout_flag = phi i1 [ false, %.critedge93 ], [ true, %._crit_edge10829 ], [ false, %memcpy.tail ] ; [#uses=1 type=i1]
  %buf_p_flag = phi i1 [ false, %.critedge93 ], [ true, %._crit_edge10829 ], [ true, %memcpy.tail ] ; [#uses=1 type=i1]
  %buf_p_loc = phi i32 [ %buf_p_load, %.critedge93 ], [ 0, %._crit_edge10829 ], [ %tmp_10, %memcpy.tail ] ; [#uses=2 type=i32]
  %buftimeout_loc = phi i32 [ %buftimeout_load, %.critedge93 ], [ 0, %._crit_edge10829 ], [ %buftimeout_load, %memcpy.tail ] ; [#uses=3 type=i32]
  %bufsel_load_3 = phi i1 [ %bufsel_load, %.critedge93 ], [ %not_bufsel_load_t, %._crit_edge10829 ], [ %bufsel_load, %memcpy.tail ] ; [#uses=1 type=i1]
  %bufsel_load_3_cast = zext i1 %bufsel_load_3 to i32, !dbg !1957 ; [#uses=1 type=i32] [debug line = 141:2]
  %tmp_15 = zext i1 %bufstatus_0_loc_1 to i32, !dbg !1957 ; [#uses=1 type=i32] [debug line = 141:2]
  %tmp_16 = call i32 @_ssdm_op_BitSet.i32.i32.i32.i1(i32 %tmp_15, i32 1, i1 %bufstatus_1_loc_1) ; [#uses=1 type=i32]
  call void @_ssdm_op_Write.s_axilite.i32P(i32* %buffer_status, i32 %tmp_16), !dbg !1957 ; [debug line = 141:2]
  %obuffer_ack_load = load i32* @obuffer_ack, align 4, !dbg !1958 ; [#uses=2 type=i32] [debug line = 147:3]
  %tmp_17 = trunc i32 %obuffer_ack_load to i1, !dbg !1958 ; [#uses=2 type=i1] [debug line = 147:3]
  %tmp_18 = xor i1 %tmp_17, true, !dbg !1958      ; [#uses=1 type=i1] [debug line = 147:3]
  br i1 %buf_p_flag, label %mergeST38, label %.critedge93._crit_edge103.new_ifconv

; <label>:3                                       ; preds = %.preheader96.preheader
  store i1 false, i1* @bufsel, align 1, !dbg !1961 ; [debug line = 187:3]
  store i32 0, i32* @obuffer_ack, align 4, !dbg !1963 ; [debug line = 190:3]
  call void @_ssdm_op_Write.s_axilite.i32P(i32* %buffer_status, i32 0), !dbg !1964 ; [debug line = 191:3]
  store i64 0, i64* @bsc, align 8, !dbg !1965     ; [debug line = 192:3]
  store i64 0, i64* @out_counter, align 8, !dbg !1966 ; [debug line = 194:3]
  store i64 0, i64* @lost_counter, align 8, !dbg !1967 ; [debug line = 195:3]
  %buffer_seq_addr = getelementptr [2 x i64]* %buffer_seq, i64 0, i64 0, !dbg !1968 ; [#uses=1 type=i64*] [debug line = 198:3]
  store i64 0, i64* %buffer_seq_addr, align 8, !dbg !1968 ; [debug line = 198:3]
  %bufsize_addr = getelementptr [2 x i32]* %bufsize, i64 0, i64 0, !dbg !1971 ; [#uses=1 type=i32*] [debug line = 199:3]
  store i32 0, i32* %bufsize_addr, align 4, !dbg !1971 ; [debug line = 199:3]
  %buffer_seq_addr_1 = getelementptr [2 x i64]* %buffer_seq, i64 0, i64 1, !dbg !1968 ; [#uses=1 type=i64*] [debug line = 198:3]
  store i64 0, i64* %buffer_seq_addr_1, align 8, !dbg !1968 ; [debug line = 198:3]
  %bufsize_addr_1 = getelementptr [2 x i32]* %bufsize, i64 0, i64 1, !dbg !1971 ; [#uses=1 type=i32*] [debug line = 199:3]
  store i32 0, i32* %bufsize_addr_1, align 4, !dbg !1971 ; [debug line = 199:3]
  call void @_ssdm_op_Write.ap_ovld.i1P(i1* %interrupt_r, i1 false), !dbg !1972 ; [debug line = 203:3]
  br label %mergeST39

mergeST39:                                        ; preds = %.new37, %3
  %bufstatus_0_flag_3 = phi i1 [ %bufstatus_0_flag_2, %.new37 ], [ true, %3 ] ; [#uses=1 type=i1]
  %bufstatus_0_new_3 = phi i1 [ %bufstatus_0_new_2, %.new37 ], [ false, %3 ] ; [#uses=1 type=i1]
  %bufstatus_1_flag_3 = phi i1 [ %bufstatus_1_flag_2, %.new37 ], [ true, %3 ] ; [#uses=1 type=i1]
  %bufstatus_1_new_3 = phi i1 [ %bufstatus_1_new_2, %.new37 ], [ false, %3 ] ; [#uses=1 type=i1]
  %inbuffer_pointer_fla_2 = phi i1 [ %inbuffer_pointer_fla_1, %.new37 ], [ true, %3 ] ; [#uses=1 type=i1]
  %inbuffer_pointer_new_2 = phi i32 [ %inbuffer_pointer_new_1, %.new37 ], [ 0, %3 ] ; [#uses=1 type=i32]
  %buftimeout_new = phi i32 [ %storemerge, %.new37 ], [ 0, %3 ] ; [#uses=1 type=i32]
  %clear_fifo_load = phi i1 [ true, %.new37 ], [ false, %3 ], !dbg !1973 ; [#uses=1 type=i1] [debug line = 206:2]
  call void @_ssdm_op_Write.ap_none.i1P(i1* %fifo_resetn, i1 %clear_fifo_load), !dbg !1973 ; [debug line = 206:2]
  store i32 %buftimeout_new, i32* @buftimeout, align 4, !dbg !1974 ; [debug line = 121:5]
  br i1 %inbuffer_pointer_fla_2, label %mergeST34, label %.new35

branch4:                                          ; preds = %._crit_edge105
  store i64 %tmp_14, i64* @bsq_0, align 8, !dbg !1951 ; [debug line = 130:5]
  br label %._crit_edge10829, !dbg !1951          ; [debug line = 130:5]

branch5:                                          ; preds = %._crit_edge105
  store i64 %tmp_14, i64* @bsq_1, align 8, !dbg !1951 ; [debug line = 130:5]
  br label %._crit_edge10829, !dbg !1951          ; [debug line = 130:5]

mergeST:                                          ; preds = %.new33
  store i1 %bufstatus_0_new_3, i1* @bufstatus_0, align 1, !dbg !1975 ; [debug line = 149:4]
  br label %.new

.new:                                             ; preds = %.new33, %mergeST
  ret void, !dbg !1977                            ; [debug line = 207:1]

mergeST32:                                        ; preds = %.new35
  store i1 %bufstatus_1_new_3, i1* @bufstatus_1, align 1, !dbg !1975 ; [debug line = 149:4]
  br label %.new33

.new33:                                           ; preds = %.new35, %mergeST32
  br i1 %bufstatus_0_flag_3, label %mergeST, label %.new

mergeST34:                                        ; preds = %mergeST39
  store i32 %inbuffer_pointer_new_2, i32* @inbuffer_pointer, align 4, !dbg !1655 ; [debug line = 72:4]
  br label %.new35

.new35:                                           ; preds = %mergeST34, %mergeST39
  br i1 %bufstatus_1_flag_3, label %mergeST32, label %.new33

mergeST36:                                        ; preds = %.critedge93._crit_edge103.new_ifconv
  store i1 %tmp_23, i1* @swap_timeout, align 1, !dbg !1978 ; [debug line = 122:5]
  br label %.new37

.new37:                                           ; preds = %.critedge93._crit_edge103.new_ifconv, %mergeST36
  br label %mergeST39, !dbg !1979                 ; [debug line = 184:2]

mergeST38:                                        ; preds = %.critedge93._crit_edge103
  store i32 %buf_p_loc, i32* @buf_p, align 4, !dbg !1944 ; [debug line = 113:3]
  br label %.critedge93._crit_edge103.new_ifconv

.critedge93._crit_edge103.new_ifconv:             ; preds = %mergeST38, %.critedge93._crit_edge103
  %tmp_25 = trunc i32 %buffer_ack_read to i1, !dbg !1958 ; [#uses=2 type=i1] [debug line = 147:3]
  %tmp_19 = xor i1 %tmp_25, true, !dbg !1958      ; [#uses=1 type=i1] [debug line = 147:3]
  %bufstatus_0_flag_1_s = and i1 %tmp_25, %tmp_18 ; [#uses=1 type=i1]
  %bufstatus_0_flag_2 = or i1 %bufstatus_0_flag_1, %bufstatus_0_flag_1_s ; [#uses=1 type=i1]
  %bufstatus_0_new_2 = or i1 %tmp_17, %tmp_19     ; [#uses=2 type=i1]
  %bufstatus_load_4 = and i1 %bufstatus_0_loc_1, %bufstatus_0_new_2 ; [#uses=1 type=i1]
  %tmp_26 = call i1 @_ssdm_op_BitSelect.i1.i32.i32(i32 %obuffer_ack_load, i32 1), !dbg !1958 ; [#uses=2 type=i1] [debug line = 147:3]
  %rev = xor i1 %tmp_26, true, !dbg !1958         ; [#uses=1 type=i1] [debug line = 147:3]
  %tmp_27 = call i1 @_ssdm_op_BitSelect.i1.i32.i32(i32 %buffer_ack_read, i32 1), !dbg !1958 ; [#uses=2 type=i1] [debug line = 147:3]
  %rev8 = xor i1 %tmp_27, true, !dbg !1958        ; [#uses=1 type=i1] [debug line = 147:3]
  %bufstatus_1_flag_1_s = and i1 %tmp_27, %rev    ; [#uses=1 type=i1]
  %bufstatus_1_flag_2 = or i1 %bufstatus_1_flag_1, %bufstatus_1_flag_1_s ; [#uses=1 type=i1]
  %bufstatus_1_new_2 = or i1 %tmp_26, %rev8       ; [#uses=2 type=i1]
  %bufstatus_load_5 = and i1 %bufstatus_1_loc_1, %bufstatus_1_new_2 ; [#uses=1 type=i1]
  store i32 %buffer_ack_read, i32* @obuffer_ack, align 4, !dbg !1980 ; [debug line = 153:2]
  call void @_ssdm_op_Write.ap_ovld.i32P(i32* %debug_bufsel_0, i32 %bufsel_load_3_cast), !dbg !1981 ; [debug line = 155:2]
  call void @_ssdm_op_Write.ap_ovld.i32P(i32* %debug_buf0_p, i32 %buf_p_loc), !dbg !1982 ; [debug line = 156:2]
  %tmp_20 = zext i1 %bufstatus_load_4 to i32, !dbg !1983 ; [#uses=1 type=i32] [debug line = 158:2]
  %tmp_21 = call i32 @_ssdm_op_BitSet.i32.i32.i32.i1(i32 %tmp_20, i32 1, i1 %bufstatus_load_5) ; [#uses=1 type=i32]
  call void @_ssdm_op_Write.ap_ovld.i32P(i32* %debug_buffer_status, i32 %tmp_21), !dbg !1983 ; [debug line = 158:2]
  store i64 0, i64* %stat_counter_addr, align 8, !dbg !1984 ; [debug line = 163:2]
  %stat_counter_addr_1 = getelementptr [4 x i64]* %stat_counter, i64 0, i64 1, !dbg !1985 ; [#uses=1 type=i64*] [debug line = 164:2]
  store i64 %out_counter_loc_2, i64* %stat_counter_addr_1, align 8, !dbg !1985 ; [debug line = 164:2]
  %stat_counter_addr_2 = getelementptr [4 x i64]* %stat_counter, i64 0, i64 2, !dbg !1986 ; [#uses=1 type=i64*] [debug line = 165:2]
  store i64 %lost_counter_loc_2, i64* %stat_counter_addr_2, align 8, !dbg !1986 ; [debug line = 165:2]
  %tmp_22 = zext i32 %buftimeout_loc to i64, !dbg !1605 ; [#uses=1 type=i64] [debug line = 166:2]
  %stat_counter_addr_3 = getelementptr [4 x i64]* %stat_counter, i64 0, i64 4, !dbg !1605 ; [#uses=1 type=i64*] [debug line = 166:2]
  store i64 %tmp_22, i64* %stat_counter_addr_3, align 8, !dbg !1605 ; [debug line = 166:2]
  %tmp_23 = icmp eq i32 %buftimeout_loc, 10000000, !dbg !1987 ; [#uses=3 type=i1] [debug line = 173:2]
  %tmp_24 = add i32 1, %buftimeout_loc, !dbg !1988 ; [#uses=1 type=i32] [debug line = 179:3]
  %swap_timeout_flag_1 = or i1 %tmp_23, %swap_timeout_flag, !dbg !1987 ; [#uses=1 type=i1] [debug line = 173:2]
  %storemerge = select i1 %tmp_23, i32 0, i32 %tmp_24, !dbg !1987 ; [#uses=1 type=i32] [debug line = 173:2]
  br i1 %swap_timeout_flag_1, label %mergeST36, label %.new37
}

; [#uses=1]
define weak i1 @_ssdm_op_WriteResp.m_axi.i32P(i32*) {
entry:
  ret i1 true
}

; [#uses=1]
define weak i1 @_ssdm_op_WriteReq.m_axi.i32P(i32*, i32) {
entry:
  ret i1 true
}

; [#uses=2]
define weak void @_ssdm_op_Write.s_axilite.i32P(i32*, i32) {
entry:
  store i32 %1, i32* %0
  ret void
}

; [#uses=1]
define weak void @_ssdm_op_Write.m_axi.i32P(i32*, i32, i4) {
entry:
  ret void
}

; [#uses=1]
define weak void @_ssdm_op_Write.ap_ovld.i64P(i64*, i64) {
entry:
  store i64 %1, i64* %0
  ret void
}

; [#uses=4]
define weak void @_ssdm_op_Write.ap_ovld.i32P(i32*, i32) {
entry:
  store i32 %1, i32* %0
  ret void
}

; [#uses=2]
define weak void @_ssdm_op_Write.ap_ovld.i1P(i1*, i1) {
entry:
  store i1 %1, i1* %0
  ret void
}

; [#uses=1]
define weak void @_ssdm_op_Write.ap_none.i1P(i1*, i1) {
entry:
  store i1 %1, i1* %0
  ret void
}

; [#uses=1]
define weak void @_ssdm_op_SpecTopModule(...) {
entry:
  ret void
}

; [#uses=1]
define weak i32 @_ssdm_op_SpecRegionEnd(...) {
entry:
  ret i32 0
}

; [#uses=1]
define weak i32 @_ssdm_op_SpecRegionBegin(...) {
entry:
  ret i32 0
}

; [#uses=1]
define weak i32 @_ssdm_op_SpecPipeline(...) {
entry:
  ret i32 0
}

; [#uses=3]
define weak i32 @_ssdm_op_SpecMemCore(...) {
entry:
  ret i32 0
}

; [#uses=1]
define weak i32 @_ssdm_op_SpecLoopTripCount(...) {
entry:
  ret i32 0
}

; [#uses=1]
define weak void @_ssdm_op_SpecLoopName(...) nounwind {
entry:
  ret void
}

; [#uses=17]
define weak void @_ssdm_op_SpecInterface(...) nounwind {
entry:
  ret void
}

; [#uses=16]
define weak void @_ssdm_op_SpecBitsMap(...) {
entry:
  ret void
}

; [#uses=2]
define weak i32 @_ssdm_op_Read.s_axilite.i32(i32) {
entry:
  ret i32 %0
}

; [#uses=1]
define weak i1 @_ssdm_op_Read.s_axilite.i1(i1) {
entry:
  ret i1 %0
}

; [#uses=1]
define weak i64 @_ssdm_op_Read.axis.volatile.i64P(i64*) {
entry:
  %empty = load i64* %0                           ; [#uses=1 type=i64]
  ret i64 %empty
}

; [#uses=1]
define weak i32 @_ssdm_op_PartSelect.i32.i64.i32.i32(i64, i32, i32) nounwind readnone {
entry:
  %empty = call i64 @llvm.part.select.i64(i64 %0, i32 %1, i32 %2) ; [#uses=1 type=i64]
  %empty_11 = trunc i64 %empty to i32             ; [#uses=1 type=i32]
  ret i32 %empty_11
}

; [#uses=1]
define weak i30 @_ssdm_op_PartSelect.i30.i32.i32.i32(i32, i32, i32) nounwind readnone {
entry:
  %empty = call i32 @llvm.part.select.i32(i32 %0, i32 %1, i32 %2) ; [#uses=1 type=i32]
  %empty_12 = trunc i32 %empty to i30             ; [#uses=1 type=i30]
  ret i30 %empty_12
}

; [#uses=0]
declare i2 @_ssdm_op_PartSelect.i2.i32.i32.i32(i32, i32, i32) nounwind readnone

; [#uses=0]
declare i1 @_ssdm_op_PartSelect.i1.i32.i32.i32(i32, i32, i32) nounwind readnone

; [#uses=1]
define weak i1 @_ssdm_op_NbReadReq.axis.i64P(i64*, i32) {
entry:
  ret i1 true
}

; [#uses=2]
define weak i32 @_ssdm_op_BitSet.i32.i32.i32.i1(i32, i32, i1) nounwind readnone {
entry:
  %empty = icmp ne i1 %2, false                   ; [#uses=1 type=i1]
  %empty_13 = zext i1 %empty to i32               ; [#uses=1 type=i32]
  %empty_14 = bitcast i32 %1 to i32               ; [#uses=2 type=i32]
  %empty_15 = shl i32 %empty_13, %empty_14        ; [#uses=1 type=i32]
  %empty_16 = shl i32 1, %empty_14                ; [#uses=1 type=i32]
  %empty_17 = xor i32 %empty_16, -1               ; [#uses=1 type=i32]
  %empty_18 = and i32 %empty_17, %0               ; [#uses=1 type=i32]
  %empty_19 = or i32 %empty_15, %empty_18         ; [#uses=1 type=i32]
  ret i32 %empty_19
}

; [#uses=2]
define weak i1 @_ssdm_op_BitSelect.i1.i32.i32(i32, i32) nounwind readnone {
entry:
  %empty = shl i32 1, %1                          ; [#uses=1 type=i32]
  %empty_20 = and i32 %0, %empty                  ; [#uses=1 type=i32]
  %empty_21 = icmp ne i32 %empty_20, 0            ; [#uses=1 type=i1]
  ret i1 %empty_21
}

; [#uses=0]
define weak i1 @_ssdm_op_BitSelect.i1.i2.i32(i2, i32) nounwind readnone {
entry:
  %empty = trunc i32 %1 to i2                     ; [#uses=1 type=i2]
  %empty_22 = shl i2 1, %empty                    ; [#uses=1 type=i2]
  %empty_23 = and i2 %0, %empty_22                ; [#uses=1 type=i2]
  %empty_24 = icmp ne i2 %empty_23, 0             ; [#uses=1 type=i1]
  ret i1 %empty_24
}

; [#uses=1]
define weak i23 @_ssdm_op_BitConcatenate.i23.i1.i22(i1, i22) nounwind readnone {
entry:
  %empty = zext i1 %0 to i23                      ; [#uses=1 type=i23]
  %empty_25 = zext i22 %1 to i23                  ; [#uses=1 type=i23]
  %empty_26 = shl i23 %empty, 22                  ; [#uses=1 type=i23]
  %empty_27 = or i23 %empty_26, %empty_25         ; [#uses=1 type=i23]
  ret i23 %empty_27
}

!opencl.kernels = !{!0, !7, !13, !19, !24, !24, !13, !30, !13, !13, !13, !33, !36, !36, !36, !13, !13, !13, !13, !13, !39, !41, !44, !44, !50, !13, !13, !13, !13, !13, !13}
!hls.encrypted.func = !{}
!llvm.map.gv = !{!53}

!0 = metadata !{null, metadata !1, metadata !2, metadata !3, metadata !4, metadata !5, metadata !6}
!1 = metadata !{metadata !"kernel_arg_addr_space", i32 1, i32 0, i32 1, i32 0, i32 1, i32 1, i32 1, i32 1, i32 1, i32 1, i32 1, i32 0, i32 1, i32 0, i32 1, i32 1}
!2 = metadata !{metadata !"kernel_arg_access_qual", metadata !"none", metadata !"none", metadata !"none", metadata !"none", metadata !"none", metadata !"none", metadata !"none", metadata !"none", metadata !"none", metadata !"none", metadata !"none", metadata !"none", metadata !"none", metadata !"none", metadata !"none", metadata !"none"}
!3 = metadata !{metadata !"kernel_arg_type", metadata !"ram_word*", metadata !"stream<bus_word>", metadata !"int*", metadata !"int", metadata !"uint64_t*", metadata !"uint32_t*", metadata !"int*", metadata !"int*", metadata !"int*", metadata !"int*", metadata !"bus_word*", metadata !"_Bool", metadata !"_Bool*", metadata !"ap_uint<32>", metadata !"uint64_t*", metadata !"_Bool*"}
!4 = metadata !{metadata !"kernel_arg_type_qual", metadata !"volatile", metadata !"", metadata !"", metadata !"", metadata !"", metadata !"", metadata !"", metadata !"", metadata !"", metadata !"", metadata !"", metadata !"", metadata !"", metadata !"", metadata !"", metadata !""}
!5 = metadata !{metadata !"kernel_arg_name", metadata !"a", metadata !"stream0", metadata !"buffer_status", metadata !"buffer_ack", metadata !"buffer_seq", metadata !"bufsize", metadata !"debug_buffer_status", metadata !"debug_bufsel_0", metadata !"debug_buf0_p", metadata !"debug_inbuffer_pointer", metadata !"debug_dst_var", metadata !"run", metadata !"fifo_resetn", metadata !"DDROFFSET", metadata !"stat_counter", metadata !"interrupt_r"}
!6 = metadata !{metadata !"reqd_work_group_size", i32 1, i32 1, i32 1}
!7 = metadata !{null, metadata !8, metadata !9, metadata !10, metadata !11, metadata !12, metadata !6}
!8 = metadata !{metadata !"kernel_arg_addr_space", i32 1, i32 0}
!9 = metadata !{metadata !"kernel_arg_access_qual", metadata !"none", metadata !"none"}
!10 = metadata !{metadata !"kernel_arg_type", metadata !"struct ap_uint<32>*", metadata !"const ap_int_base<33, true> &"}
!11 = metadata !{metadata !"kernel_arg_type_qual", metadata !"volatile", metadata !""}
!12 = metadata !{metadata !"kernel_arg_name", metadata !"i_op", metadata !"op"}
!13 = metadata !{null, metadata !14, metadata !15, metadata !16, metadata !17, metadata !18, metadata !6}
!14 = metadata !{metadata !"kernel_arg_addr_space"}
!15 = metadata !{metadata !"kernel_arg_access_qual"}
!16 = metadata !{metadata !"kernel_arg_type"}
!17 = metadata !{metadata !"kernel_arg_type_qual"}
!18 = metadata !{metadata !"kernel_arg_name"}
!19 = metadata !{null, metadata !20, metadata !9, metadata !21, metadata !22, metadata !23, metadata !6}
!20 = metadata !{metadata !"kernel_arg_addr_space", i32 0, i32 0}
!21 = metadata !{metadata !"kernel_arg_type", metadata !"const ap_int_base<32, false> &", metadata !"int"}
!22 = metadata !{metadata !"kernel_arg_type_qual", metadata !"", metadata !""}
!23 = metadata !{metadata !"kernel_arg_name", metadata !"op", metadata !"i_op"}
!24 = metadata !{null, metadata !25, metadata !26, metadata !27, metadata !28, metadata !29, metadata !6}
!25 = metadata !{metadata !"kernel_arg_addr_space", i32 0}
!26 = metadata !{metadata !"kernel_arg_access_qual", metadata !"none"}
!27 = metadata !{metadata !"kernel_arg_type", metadata !"int"}
!28 = metadata !{metadata !"kernel_arg_type_qual", metadata !""}
!29 = metadata !{metadata !"kernel_arg_name", metadata !"op"}
!30 = metadata !{null, metadata !20, metadata !9, metadata !31, metadata !22, metadata !32, metadata !6}
!31 = metadata !{metadata !"kernel_arg_type", metadata !"const ap_int_base<32, false> &", metadata !"const ap_int_base<32, true> &"}
!32 = metadata !{metadata !"kernel_arg_name", metadata !"op", metadata !"op2"}
!33 = metadata !{null, metadata !25, metadata !26, metadata !34, metadata !28, metadata !35, metadata !6}
!34 = metadata !{metadata !"kernel_arg_type", metadata !"const ap_uint<64> &"}
!35 = metadata !{metadata !"kernel_arg_name", metadata !"op2"}
!36 = metadata !{null, metadata !25, metadata !26, metadata !37, metadata !28, metadata !38, metadata !6}
!37 = metadata !{metadata !"kernel_arg_type", metadata !"const ap_range_ref<64, false> &"}
!38 = metadata !{metadata !"kernel_arg_name", metadata !"ref"}
!39 = metadata !{null, metadata !25, metadata !26, metadata !40, metadata !28, metadata !35, metadata !6}
!40 = metadata !{metadata !"kernel_arg_type", metadata !"const ap_uint<32> &"}
!41 = metadata !{null, metadata !20, metadata !9, metadata !42, metadata !22, metadata !43, metadata !6}
!42 = metadata !{metadata !"kernel_arg_type", metadata !"int", metadata !"int"}
!43 = metadata !{metadata !"kernel_arg_name", metadata !"Hi", metadata !"Lo"}
!44 = metadata !{null, metadata !45, metadata !46, metadata !47, metadata !48, metadata !49, metadata !6}
!45 = metadata !{metadata !"kernel_arg_addr_space", i32 1, i32 0, i32 0}
!46 = metadata !{metadata !"kernel_arg_access_qual", metadata !"none", metadata !"none", metadata !"none"}
!47 = metadata !{metadata !"kernel_arg_type", metadata !"ap_int_base<64, false>*", metadata !"int", metadata !"int"}
!48 = metadata !{metadata !"kernel_arg_type_qual", metadata !"", metadata !"", metadata !""}
!49 = metadata !{metadata !"kernel_arg_name", metadata !"bv", metadata !"h", metadata !"l"}
!50 = metadata !{null, metadata !25, metadata !26, metadata !51, metadata !28, metadata !52, metadata !6}
!51 = metadata !{metadata !"kernel_arg_type", metadata !"struct ap_uint<64> &"}
!52 = metadata !{metadata !"kernel_arg_name", metadata !"dout"}
!53 = metadata !{metadata !54, [0 x i32]* @llvm_global_ctors_0}
!54 = metadata !{metadata !55}
!55 = metadata !{i32 0, i32 31, metadata !56}
!56 = metadata !{metadata !57}
!57 = metadata !{metadata !"llvm.global_ctors.0", metadata !58, metadata !"", i32 0, i32 31}
!58 = metadata !{metadata !59}
!59 = metadata !{i32 0, i32 0, i32 1}
!60 = metadata !{metadata !61}
!61 = metadata !{i32 0, i32 31, metadata !62}
!62 = metadata !{metadata !63}
!63 = metadata !{metadata !"a.V", metadata !64, metadata !"uint32", i32 0, i32 31}
!64 = metadata !{metadata !65}
!65 = metadata !{i32 0, i32 31, i32 1}
!66 = metadata !{metadata !67}
!67 = metadata !{i32 0, i32 63, metadata !68}
!68 = metadata !{metadata !69}
!69 = metadata !{metadata !"stream0.V.V", metadata !58, metadata !"uint64", i32 0, i32 63}
!70 = metadata !{metadata !71}
!71 = metadata !{i32 0, i32 31, metadata !72}
!72 = metadata !{metadata !73}
!73 = metadata !{metadata !"buffer_status", metadata !58, metadata !"int", i32 0, i32 31}
!74 = metadata !{metadata !75}
!75 = metadata !{i32 0, i32 31, metadata !76}
!76 = metadata !{metadata !77}
!77 = metadata !{metadata !"buffer_ack", metadata !78, metadata !"int", i32 0, i32 31}
!78 = metadata !{metadata !79}
!79 = metadata !{i32 0, i32 0, i32 0}
!80 = metadata !{metadata !81}
!81 = metadata !{i32 0, i32 63, metadata !82}
!82 = metadata !{metadata !83}
!83 = metadata !{metadata !"buffer_seq", metadata !84, metadata !"long long unsigned int", i32 0, i32 63}
!84 = metadata !{metadata !85}
!85 = metadata !{i32 0, i32 1, i32 1}
!86 = metadata !{metadata !87}
!87 = metadata !{i32 0, i32 31, metadata !88}
!88 = metadata !{metadata !89}
!89 = metadata !{metadata !"bufsize", metadata !84, metadata !"unsigned int", i32 0, i32 31}
!90 = metadata !{metadata !91}
!91 = metadata !{i32 0, i32 31, metadata !92}
!92 = metadata !{metadata !93}
!93 = metadata !{metadata !"debug_buffer_status", metadata !58, metadata !"int", i32 0, i32 31}
!94 = metadata !{metadata !95}
!95 = metadata !{i32 0, i32 31, metadata !96}
!96 = metadata !{metadata !97}
!97 = metadata !{metadata !"debug_bufsel_0", metadata !58, metadata !"int", i32 0, i32 31}
!98 = metadata !{metadata !99}
!99 = metadata !{i32 0, i32 31, metadata !100}
!100 = metadata !{metadata !101}
!101 = metadata !{metadata !"debug_buf0_p", metadata !58, metadata !"int", i32 0, i32 31}
!102 = metadata !{metadata !103}
!103 = metadata !{i32 0, i32 31, metadata !104}
!104 = metadata !{metadata !105}
!105 = metadata !{metadata !"debug_inbuffer_pointer", metadata !58, metadata !"int", i32 0, i32 31}
!106 = metadata !{metadata !107}
!107 = metadata !{i32 0, i32 63, metadata !108}
!108 = metadata !{metadata !109}
!109 = metadata !{metadata !"debug_dst_var.V", metadata !58, metadata !"uint64", i32 0, i32 63}
!110 = metadata !{metadata !111}
!111 = metadata !{i32 0, i32 0, metadata !112}
!112 = metadata !{metadata !113}
!113 = metadata !{metadata !"run", metadata !78, metadata !"bool", i32 0, i32 0}
!114 = metadata !{metadata !115}
!115 = metadata !{i32 0, i32 0, metadata !116}
!116 = metadata !{metadata !117}
!117 = metadata !{metadata !"fifo_resetn", metadata !58, metadata !"bool", i32 0, i32 0}
!118 = metadata !{metadata !119}
!119 = metadata !{i32 0, i32 31, metadata !120}
!120 = metadata !{metadata !121}
!121 = metadata !{metadata !"DDROFFSET.V", metadata !78, metadata !"uint32", i32 0, i32 31}
!122 = metadata !{metadata !123}
!123 = metadata !{i32 0, i32 63, metadata !124}
!124 = metadata !{metadata !125}
!125 = metadata !{metadata !"stat_counter", metadata !126, metadata !"long long unsigned int", i32 0, i32 63}
!126 = metadata !{metadata !127}
!127 = metadata !{i32 0, i32 3, i32 1}
!128 = metadata !{metadata !129}
!129 = metadata !{i32 0, i32 0, metadata !130}
!130 = metadata !{metadata !131}
!131 = metadata !{metadata !"interrupt_r", metadata !58, metadata !"bool", i32 0, i32 0}
!132 = metadata !{i32 786689, metadata !133, metadata !"run", metadata !134, i32 201326621, metadata !163, i32 0, i32 0} ; [ DW_TAG_arg_variable ]
!133 = metadata !{i32 786478, i32 0, metadata !134, metadata !"data_mover", metadata !"data_mover", metadata !"_Z10data_moverPV7ap_uintILi32EEN3hls6streamIS_ILi64EEEEPiiPyPjS7_S7_S7_S7_PS5_bPbS0_S8_SB_", metadata !134, i32 18, metadata !135, i1 false, i1 true, i32 0, i32 0, null, i32 256, i1 false, null, null, null, metadata !157, i32 36} ; [ DW_TAG_subprogram ]
!134 = metadata !{i32 786473, metadata !"DmaTDC.cpp", metadata !"C:\5Ctemp\5Cfifodma5560\5CHDL\5Cip_repo\5CDMATDCZynq", null} ; [ DW_TAG_file_type ]
!135 = metadata !{i32 786453, i32 0, metadata !"", i32 0, i32 0, i64 0, i64 0, i64 0, i32 0, null, metadata !136, i32 0, i32 0} ; [ DW_TAG_subroutine_type ]
!136 = metadata !{null, metadata !137, metadata !1409, metadata !1532, metadata !161, metadata !1533, metadata !1535, metadata !1532, metadata !1532, metadata !1532, metadata !1532, metadata !1537, metadata !163, metadata !1539, metadata !140, metadata !1533, metadata !1539}
!137 = metadata !{i32 786447, null, metadata !"", null, i32 0, i64 64, i64 64, i64 0, i32 0, metadata !138} ; [ DW_TAG_pointer_type ]
!138 = metadata !{i32 786485, null, metadata !"", null, i32 0, i64 0, i64 0, i64 0, i32 0, metadata !139} ; [ DW_TAG_volatile_type ]
!139 = metadata !{i32 786454, null, metadata !"ram_word", metadata !134, i32 16, i64 0, i64 0, i64 0, i32 0, metadata !140} ; [ DW_TAG_typedef ]
!140 = metadata !{i32 786434, null, metadata !"ap_uint<32>", metadata !141, i32 183, i64 32, i64 32, i32 0, i32 0, null, metadata !142, i32 0, null, metadata !1408} ; [ DW_TAG_class_type ]
!141 = metadata !{i32 786473, metadata !"C:/Xilinx/Vivado/2017.4/common/technology/autopilot\5Cap_int.h", metadata !"C:\5Ctemp\5Cfifodma5560\5CHDL\5Cip_repo\5CDMATDCZynq", null} ; [ DW_TAG_file_type ]
!142 = metadata !{metadata !143, metadata !780, metadata !784, metadata !1340, metadata !1343, metadata !1346, metadata !1349, metadata !1352, metadata !1355, metadata !1358, metadata !1361, metadata !1364, metadata !1367, metadata !1370, metadata !1373, metadata !1376, metadata !1379, metadata !1382, metadata !1385, metadata !1388, metadata !1395, metadata !1400, metadata !1404, metadata !1407}
!143 = metadata !{i32 786460, metadata !140, null, metadata !141, i32 0, i64 0, i64 0, i64 0, i32 0, metadata !144} ; [ DW_TAG_inheritance ]
!144 = metadata !{i32 786434, null, metadata !"ap_int_base<32, false, true>", metadata !145, i32 1453, i64 32, i64 32, i32 0, i32 0, null, metadata !146, i32 0, null, metadata !779} ; [ DW_TAG_class_type ]
!145 = metadata !{i32 786473, metadata !"C:/Xilinx/Vivado/2017.4/common/technology/autopilot/ap_int_syn.h", metadata !"C:\5Ctemp\5Cfifodma5560\5CHDL\5Cip_repo\5CDMATDCZynq", null} ; [ DW_TAG_file_type ]
!146 = metadata !{metadata !147, metadata !164, metadata !168, metadata !176, metadata !182, metadata !185, metadata !189, metadata !193, metadata !197, metadata !201, metadata !204, metadata !208, metadata !212, metadata !216, metadata !221, metadata !226, metadata !231, metadata !235, metadata !239, metadata !245, metadata !248, metadata !252, metadata !255, metadata !258, metadata !259, metadata !263, metadata !266, metadata !269, metadata !272, metadata !275, metadata !278, metadata !281, metadata !284, metadata !287, metadata !290, metadata !293, metadata !296, metadata !306, metadata !309, metadata !312, metadata !315, metadata !318, metadata !321, metadata !324, metadata !327, metadata !330, metadata !333, metadata !336, metadata !339, metadata !342, metadata !343, metadata !347, metadata !350, metadata !351, metadata !352, metadata !353, metadata !354, metadata !355, metadata !358, metadata !359, metadata !362, metadata !363, metadata !364, metadata !365, metadata !366, metadata !367, metadata !370, metadata !371, metadata !372, metadata !375, metadata !376, metadata !379, metadata !380, metadata !682, metadata !744, metadata !745, metadata !748, metadata !749, metadata !753, metadata !754, metadata !755, metadata !756, metadata !759, metadata !760, metadata !761, metadata !762, metadata !763, metadata !764, metadata !765, metadata !766, metadata !767, metadata !768, metadata !769, metadata !770, metadata !773, metadata !776}
!147 = metadata !{i32 786460, metadata !144, null, metadata !145, i32 0, i64 0, i64 0, i64 0, i32 0, metadata !148} ; [ DW_TAG_inheritance ]
!148 = metadata !{i32 786434, null, metadata !"ssdm_int<32 + 1024 * 0, false>", metadata !149, i32 34, i64 32, i64 32, i32 0, i32 0, null, metadata !150, i32 0, null, metadata !159} ; [ DW_TAG_class_type ]
!149 = metadata !{i32 786473, metadata !"C:/Xilinx/Vivado/2017.4/common/technology/autopilot/etc/autopilot_dt.def", metadata !"C:\5Ctemp\5Cfifodma5560\5CHDL\5Cip_repo\5CDMATDCZynq", null} ; [ DW_TAG_file_type ]
!150 = metadata !{metadata !151, metadata !153}
!151 = metadata !{i32 786445, metadata !148, metadata !"V", metadata !149, i32 34, i64 32, i64 32, i64 0, i32 0, metadata !152} ; [ DW_TAG_member ]
!152 = metadata !{i32 786468, null, metadata !"uint32", null, i32 0, i64 32, i64 32, i64 0, i32 0, i32 7} ; [ DW_TAG_base_type ]
!153 = metadata !{i32 786478, i32 0, metadata !148, metadata !"ssdm_int", metadata !"ssdm_int", metadata !"", metadata !149, i32 34, metadata !154, i1 false, i1 false, i32 0, i32 0, null, i32 256, i1 false, null, null, i32 0, metadata !157, i32 34} ; [ DW_TAG_subprogram ]
!154 = metadata !{i32 786453, i32 0, metadata !"", i32 0, i32 0, i64 0, i64 0, i64 0, i32 0, null, metadata !155, i32 0, i32 0} ; [ DW_TAG_subroutine_type ]
!155 = metadata !{null, metadata !156}
!156 = metadata !{i32 786447, i32 0, metadata !"", i32 0, i32 0, i64 64, i64 64, i64 0, i32 64, metadata !148} ; [ DW_TAG_pointer_type ]
!157 = metadata !{metadata !158}
!158 = metadata !{i32 786468}                     ; [ DW_TAG_base_type ]
!159 = metadata !{metadata !160, metadata !162}
!160 = metadata !{i32 786480, null, metadata !"_AP_N", metadata !161, i64 32, null, i32 0, i32 0} ; [ DW_TAG_template_value_parameter ]
!161 = metadata !{i32 786468, null, metadata !"int", null, i32 0, i64 32, i64 32, i64 0, i32 0, i32 5} ; [ DW_TAG_base_type ]
!162 = metadata !{i32 786480, null, metadata !"_AP_S", metadata !163, i64 0, null, i32 0, i32 0} ; [ DW_TAG_template_value_parameter ]
!163 = metadata !{i32 786468, null, metadata !"bool", null, i32 0, i64 8, i64 8, i64 0, i32 0, i32 2} ; [ DW_TAG_base_type ]
!164 = metadata !{i32 786478, i32 0, metadata !144, metadata !"ap_int_base", metadata !"ap_int_base", metadata !"", metadata !145, i32 1494, metadata !165, i1 false, i1 false, i32 0, i32 0, null, i32 256, i1 false, null, null, i32 0, metadata !157, i32 1494} ; [ DW_TAG_subprogram ]
!165 = metadata !{i32 786453, i32 0, metadata !"", i32 0, i32 0, i64 0, i64 0, i64 0, i32 0, null, metadata !166, i32 0, i32 0} ; [ DW_TAG_subroutine_type ]
!166 = metadata !{null, metadata !167}
!167 = metadata !{i32 786447, i32 0, metadata !"", i32 0, i32 0, i64 64, i64 64, i64 0, i32 64, metadata !144} ; [ DW_TAG_pointer_type ]
!168 = metadata !{i32 786478, i32 0, metadata !144, metadata !"ap_int_base<32, false>", metadata !"ap_int_base<32, false>", metadata !"", metadata !145, i32 1506, metadata !169, i1 false, i1 false, i32 0, i32 0, null, i32 256, i1 false, null, metadata !173, i32 0, metadata !157, i32 1506} ; [ DW_TAG_subprogram ]
!169 = metadata !{i32 786453, i32 0, metadata !"", i32 0, i32 0, i64 0, i64 0, i64 0, i32 0, null, metadata !170, i32 0, i32 0} ; [ DW_TAG_subroutine_type ]
!170 = metadata !{null, metadata !167, metadata !171}
!171 = metadata !{i32 786448, null, null, null, i32 0, i64 0, i64 0, i64 0, i32 0, metadata !172} ; [ DW_TAG_reference_type ]
!172 = metadata !{i32 786470, null, metadata !"", null, i32 0, i64 0, i64 0, i64 0, i32 0, metadata !144} ; [ DW_TAG_const_type ]
!173 = metadata !{metadata !174, metadata !175}
!174 = metadata !{i32 786480, null, metadata !"_AP_W2", metadata !161, i64 32, null, i32 0, i32 0} ; [ DW_TAG_template_value_parameter ]
!175 = metadata !{i32 786480, null, metadata !"_AP_S2", metadata !163, i64 0, null, i32 0, i32 0} ; [ DW_TAG_template_value_parameter ]
!176 = metadata !{i32 786478, i32 0, metadata !144, metadata !"ap_int_base<32, false>", metadata !"ap_int_base<32, false>", metadata !"", metadata !145, i32 1509, metadata !177, i1 false, i1 false, i32 0, i32 0, null, i32 256, i1 false, null, metadata !173, i32 0, metadata !157, i32 1509} ; [ DW_TAG_subprogram ]
!177 = metadata !{i32 786453, i32 0, metadata !"", i32 0, i32 0, i64 0, i64 0, i64 0, i32 0, null, metadata !178, i32 0, i32 0} ; [ DW_TAG_subroutine_type ]
!178 = metadata !{null, metadata !167, metadata !179}
!179 = metadata !{i32 786448, null, null, null, i32 0, i64 0, i64 0, i64 0, i32 0, metadata !180} ; [ DW_TAG_reference_type ]
!180 = metadata !{i32 786470, null, metadata !"", null, i32 0, i64 0, i64 0, i64 0, i32 0, metadata !181} ; [ DW_TAG_const_type ]
!181 = metadata !{i32 786485, null, metadata !"", null, i32 0, i64 0, i64 0, i64 0, i32 0, metadata !144} ; [ DW_TAG_volatile_type ]
!182 = metadata !{i32 786478, i32 0, metadata !144, metadata !"ap_int_base", metadata !"ap_int_base", metadata !"", metadata !145, i32 1516, metadata !183, i1 false, i1 false, i32 0, i32 0, null, i32 384, i1 false, null, null, i32 0, metadata !157, i32 1516} ; [ DW_TAG_subprogram ]
!183 = metadata !{i32 786453, i32 0, metadata !"", i32 0, i32 0, i64 0, i64 0, i64 0, i32 0, null, metadata !184, i32 0, i32 0} ; [ DW_TAG_subroutine_type ]
!184 = metadata !{null, metadata !167, metadata !163}
!185 = metadata !{i32 786478, i32 0, metadata !144, metadata !"ap_int_base", metadata !"ap_int_base", metadata !"", metadata !145, i32 1517, metadata !186, i1 false, i1 false, i32 0, i32 0, null, i32 384, i1 false, null, null, i32 0, metadata !157, i32 1517} ; [ DW_TAG_subprogram ]
!186 = metadata !{i32 786453, i32 0, metadata !"", i32 0, i32 0, i64 0, i64 0, i64 0, i32 0, null, metadata !187, i32 0, i32 0} ; [ DW_TAG_subroutine_type ]
!187 = metadata !{null, metadata !167, metadata !188}
!188 = metadata !{i32 786468, null, metadata !"signed char", null, i32 0, i64 8, i64 8, i64 0, i32 0, i32 6} ; [ DW_TAG_base_type ]
!189 = metadata !{i32 786478, i32 0, metadata !144, metadata !"ap_int_base", metadata !"ap_int_base", metadata !"", metadata !145, i32 1518, metadata !190, i1 false, i1 false, i32 0, i32 0, null, i32 384, i1 false, null, null, i32 0, metadata !157, i32 1518} ; [ DW_TAG_subprogram ]
!190 = metadata !{i32 786453, i32 0, metadata !"", i32 0, i32 0, i64 0, i64 0, i64 0, i32 0, null, metadata !191, i32 0, i32 0} ; [ DW_TAG_subroutine_type ]
!191 = metadata !{null, metadata !167, metadata !192}
!192 = metadata !{i32 786468, null, metadata !"unsigned char", null, i32 0, i64 8, i64 8, i64 0, i32 0, i32 8} ; [ DW_TAG_base_type ]
!193 = metadata !{i32 786478, i32 0, metadata !144, metadata !"ap_int_base", metadata !"ap_int_base", metadata !"", metadata !145, i32 1519, metadata !194, i1 false, i1 false, i32 0, i32 0, null, i32 384, i1 false, null, null, i32 0, metadata !157, i32 1519} ; [ DW_TAG_subprogram ]
!194 = metadata !{i32 786453, i32 0, metadata !"", i32 0, i32 0, i64 0, i64 0, i64 0, i32 0, null, metadata !195, i32 0, i32 0} ; [ DW_TAG_subroutine_type ]
!195 = metadata !{null, metadata !167, metadata !196}
!196 = metadata !{i32 786468, null, metadata !"short", null, i32 0, i64 16, i64 16, i64 0, i32 0, i32 5} ; [ DW_TAG_base_type ]
!197 = metadata !{i32 786478, i32 0, metadata !144, metadata !"ap_int_base", metadata !"ap_int_base", metadata !"", metadata !145, i32 1520, metadata !198, i1 false, i1 false, i32 0, i32 0, null, i32 384, i1 false, null, null, i32 0, metadata !157, i32 1520} ; [ DW_TAG_subprogram ]
!198 = metadata !{i32 786453, i32 0, metadata !"", i32 0, i32 0, i64 0, i64 0, i64 0, i32 0, null, metadata !199, i32 0, i32 0} ; [ DW_TAG_subroutine_type ]
!199 = metadata !{null, metadata !167, metadata !200}
!200 = metadata !{i32 786468, null, metadata !"unsigned short", null, i32 0, i64 16, i64 16, i64 0, i32 0, i32 7} ; [ DW_TAG_base_type ]
!201 = metadata !{i32 786478, i32 0, metadata !144, metadata !"ap_int_base", metadata !"ap_int_base", metadata !"", metadata !145, i32 1521, metadata !202, i1 false, i1 false, i32 0, i32 0, null, i32 384, i1 false, null, null, i32 0, metadata !157, i32 1521} ; [ DW_TAG_subprogram ]
!202 = metadata !{i32 786453, i32 0, metadata !"", i32 0, i32 0, i64 0, i64 0, i64 0, i32 0, null, metadata !203, i32 0, i32 0} ; [ DW_TAG_subroutine_type ]
!203 = metadata !{null, metadata !167, metadata !161}
!204 = metadata !{i32 786478, i32 0, metadata !144, metadata !"ap_int_base", metadata !"ap_int_base", metadata !"", metadata !145, i32 1522, metadata !205, i1 false, i1 false, i32 0, i32 0, null, i32 384, i1 false, null, null, i32 0, metadata !157, i32 1522} ; [ DW_TAG_subprogram ]
!205 = metadata !{i32 786453, i32 0, metadata !"", i32 0, i32 0, i64 0, i64 0, i64 0, i32 0, null, metadata !206, i32 0, i32 0} ; [ DW_TAG_subroutine_type ]
!206 = metadata !{null, metadata !167, metadata !207}
!207 = metadata !{i32 786468, null, metadata !"unsigned int", null, i32 0, i64 32, i64 32, i64 0, i32 0, i32 7} ; [ DW_TAG_base_type ]
!208 = metadata !{i32 786478, i32 0, metadata !144, metadata !"ap_int_base", metadata !"ap_int_base", metadata !"", metadata !145, i32 1523, metadata !209, i1 false, i1 false, i32 0, i32 0, null, i32 384, i1 false, null, null, i32 0, metadata !157, i32 1523} ; [ DW_TAG_subprogram ]
!209 = metadata !{i32 786453, i32 0, metadata !"", i32 0, i32 0, i64 0, i64 0, i64 0, i32 0, null, metadata !210, i32 0, i32 0} ; [ DW_TAG_subroutine_type ]
!210 = metadata !{null, metadata !167, metadata !211}
!211 = metadata !{i32 786468, null, metadata !"long int", null, i32 0, i64 32, i64 32, i64 0, i32 0, i32 5} ; [ DW_TAG_base_type ]
!212 = metadata !{i32 786478, i32 0, metadata !144, metadata !"ap_int_base", metadata !"ap_int_base", metadata !"", metadata !145, i32 1524, metadata !213, i1 false, i1 false, i32 0, i32 0, null, i32 384, i1 false, null, null, i32 0, metadata !157, i32 1524} ; [ DW_TAG_subprogram ]
!213 = metadata !{i32 786453, i32 0, metadata !"", i32 0, i32 0, i64 0, i64 0, i64 0, i32 0, null, metadata !214, i32 0, i32 0} ; [ DW_TAG_subroutine_type ]
!214 = metadata !{null, metadata !167, metadata !215}
!215 = metadata !{i32 786468, null, metadata !"long unsigned int", null, i32 0, i64 32, i64 32, i64 0, i32 0, i32 7} ; [ DW_TAG_base_type ]
!216 = metadata !{i32 786478, i32 0, metadata !144, metadata !"ap_int_base", metadata !"ap_int_base", metadata !"", metadata !145, i32 1525, metadata !217, i1 false, i1 false, i32 0, i32 0, null, i32 384, i1 false, null, null, i32 0, metadata !157, i32 1525} ; [ DW_TAG_subprogram ]
!217 = metadata !{i32 786453, i32 0, metadata !"", i32 0, i32 0, i64 0, i64 0, i64 0, i32 0, null, metadata !218, i32 0, i32 0} ; [ DW_TAG_subroutine_type ]
!218 = metadata !{null, metadata !167, metadata !219}
!219 = metadata !{i32 786454, null, metadata !"ap_slong", metadata !145, i32 112, i64 0, i64 0, i64 0, i32 0, metadata !220} ; [ DW_TAG_typedef ]
!220 = metadata !{i32 786468, null, metadata !"long long int", null, i32 0, i64 64, i64 64, i64 0, i32 0, i32 5} ; [ DW_TAG_base_type ]
!221 = metadata !{i32 786478, i32 0, metadata !144, metadata !"ap_int_base", metadata !"ap_int_base", metadata !"", metadata !145, i32 1526, metadata !222, i1 false, i1 false, i32 0, i32 0, null, i32 384, i1 false, null, null, i32 0, metadata !157, i32 1526} ; [ DW_TAG_subprogram ]
!222 = metadata !{i32 786453, i32 0, metadata !"", i32 0, i32 0, i64 0, i64 0, i64 0, i32 0, null, metadata !223, i32 0, i32 0} ; [ DW_TAG_subroutine_type ]
!223 = metadata !{null, metadata !167, metadata !224}
!224 = metadata !{i32 786454, null, metadata !"ap_ulong", metadata !145, i32 111, i64 0, i64 0, i64 0, i32 0, metadata !225} ; [ DW_TAG_typedef ]
!225 = metadata !{i32 786468, null, metadata !"long long unsigned int", null, i32 0, i64 64, i64 64, i64 0, i32 0, i32 7} ; [ DW_TAG_base_type ]
!226 = metadata !{i32 786478, i32 0, metadata !144, metadata !"ap_int_base", metadata !"ap_int_base", metadata !"", metadata !145, i32 1527, metadata !227, i1 false, i1 false, i32 0, i32 0, null, i32 384, i1 false, null, null, i32 0, metadata !157, i32 1527} ; [ DW_TAG_subprogram ]
!227 = metadata !{i32 786453, i32 0, metadata !"", i32 0, i32 0, i64 0, i64 0, i64 0, i32 0, null, metadata !228, i32 0, i32 0} ; [ DW_TAG_subroutine_type ]
!228 = metadata !{null, metadata !167, metadata !229}
!229 = metadata !{i32 786454, null, metadata !"half", metadata !145, i32 54, i64 0, i64 0, i64 0, i32 0, metadata !230} ; [ DW_TAG_typedef ]
!230 = metadata !{i32 786468, null, metadata !"half", null, i32 0, i64 16, i64 16, i64 0, i32 0, i32 4} ; [ DW_TAG_base_type ]
!231 = metadata !{i32 786478, i32 0, metadata !144, metadata !"ap_int_base", metadata !"ap_int_base", metadata !"", metadata !145, i32 1528, metadata !232, i1 false, i1 false, i32 0, i32 0, null, i32 384, i1 false, null, null, i32 0, metadata !157, i32 1528} ; [ DW_TAG_subprogram ]
!232 = metadata !{i32 786453, i32 0, metadata !"", i32 0, i32 0, i64 0, i64 0, i64 0, i32 0, null, metadata !233, i32 0, i32 0} ; [ DW_TAG_subroutine_type ]
!233 = metadata !{null, metadata !167, metadata !234}
!234 = metadata !{i32 786468, null, metadata !"float", null, i32 0, i64 32, i64 32, i64 0, i32 0, i32 4} ; [ DW_TAG_base_type ]
!235 = metadata !{i32 786478, i32 0, metadata !144, metadata !"ap_int_base", metadata !"ap_int_base", metadata !"", metadata !145, i32 1529, metadata !236, i1 false, i1 false, i32 0, i32 0, null, i32 384, i1 false, null, null, i32 0, metadata !157, i32 1529} ; [ DW_TAG_subprogram ]
!236 = metadata !{i32 786453, i32 0, metadata !"", i32 0, i32 0, i64 0, i64 0, i64 0, i32 0, null, metadata !237, i32 0, i32 0} ; [ DW_TAG_subroutine_type ]
!237 = metadata !{null, metadata !167, metadata !238}
!238 = metadata !{i32 786468, null, metadata !"double", null, i32 0, i64 64, i64 64, i64 0, i32 0, i32 4} ; [ DW_TAG_base_type ]
!239 = metadata !{i32 786478, i32 0, metadata !144, metadata !"ap_int_base", metadata !"ap_int_base", metadata !"", metadata !145, i32 1556, metadata !240, i1 false, i1 false, i32 0, i32 0, null, i32 256, i1 false, null, null, i32 0, metadata !157, i32 1556} ; [ DW_TAG_subprogram ]
!240 = metadata !{i32 786453, i32 0, metadata !"", i32 0, i32 0, i64 0, i64 0, i64 0, i32 0, null, metadata !241, i32 0, i32 0} ; [ DW_TAG_subroutine_type ]
!241 = metadata !{null, metadata !167, metadata !242}
!242 = metadata !{i32 786447, null, metadata !"", null, i32 0, i64 64, i64 64, i64 0, i32 0, metadata !243} ; [ DW_TAG_pointer_type ]
!243 = metadata !{i32 786470, null, metadata !"", null, i32 0, i64 0, i64 0, i64 0, i32 0, metadata !244} ; [ DW_TAG_const_type ]
!244 = metadata !{i32 786468, null, metadata !"char", null, i32 0, i64 8, i64 8, i64 0, i32 0, i32 6} ; [ DW_TAG_base_type ]
!245 = metadata !{i32 786478, i32 0, metadata !144, metadata !"ap_int_base", metadata !"ap_int_base", metadata !"", metadata !145, i32 1563, metadata !246, i1 false, i1 false, i32 0, i32 0, null, i32 256, i1 false, null, null, i32 0, metadata !157, i32 1563} ; [ DW_TAG_subprogram ]
!246 = metadata !{i32 786453, i32 0, metadata !"", i32 0, i32 0, i64 0, i64 0, i64 0, i32 0, null, metadata !247, i32 0, i32 0} ; [ DW_TAG_subroutine_type ]
!247 = metadata !{null, metadata !167, metadata !242, metadata !188}
!248 = metadata !{i32 786478, i32 0, metadata !144, metadata !"read", metadata !"read", metadata !"_ZNV11ap_int_baseILi32ELb0ELb1EE4readEv", metadata !145, i32 1584, metadata !249, i1 false, i1 false, i32 0, i32 0, null, i32 256, i1 false, null, null, i32 0, metadata !157, i32 1584} ; [ DW_TAG_subprogram ]
!249 = metadata !{i32 786453, i32 0, metadata !"", i32 0, i32 0, i64 0, i64 0, i64 0, i32 0, null, metadata !250, i32 0, i32 0} ; [ DW_TAG_subroutine_type ]
!250 = metadata !{metadata !144, metadata !251}
!251 = metadata !{i32 786447, i32 0, metadata !"", i32 0, i32 0, i64 64, i64 64, i64 0, i32 64, metadata !181} ; [ DW_TAG_pointer_type ]
!252 = metadata !{i32 786478, i32 0, metadata !144, metadata !"write", metadata !"write", metadata !"_ZNV11ap_int_baseILi32ELb0ELb1EE5writeERKS0_", metadata !145, i32 1590, metadata !253, i1 false, i1 false, i32 0, i32 0, null, i32 256, i1 false, null, null, i32 0, metadata !157, i32 1590} ; [ DW_TAG_subprogram ]
!253 = metadata !{i32 786453, i32 0, metadata !"", i32 0, i32 0, i64 0, i64 0, i64 0, i32 0, null, metadata !254, i32 0, i32 0} ; [ DW_TAG_subroutine_type ]
!254 = metadata !{null, metadata !251, metadata !171}
!255 = metadata !{i32 786478, i32 0, metadata !144, metadata !"operator=", metadata !"operator=", metadata !"_ZNV11ap_int_baseILi32ELb0ELb1EEaSERVKS0_", metadata !145, i32 1602, metadata !256, i1 false, i1 false, i32 0, i32 0, null, i32 256, i1 false, null, null, i32 0, metadata !157, i32 1602} ; [ DW_TAG_subprogram ]
!256 = metadata !{i32 786453, i32 0, metadata !"", i32 0, i32 0, i64 0, i64 0, i64 0, i32 0, null, metadata !257, i32 0, i32 0} ; [ DW_TAG_subroutine_type ]
!257 = metadata !{null, metadata !251, metadata !179}
!258 = metadata !{i32 786478, i32 0, metadata !144, metadata !"operator=", metadata !"operator=", metadata !"_ZNV11ap_int_baseILi32ELb0ELb1EEaSERKS0_", metadata !145, i32 1611, metadata !253, i1 false, i1 false, i32 0, i32 0, null, i32 256, i1 false, null, null, i32 0, metadata !157, i32 1611} ; [ DW_TAG_subprogram ]
!259 = metadata !{i32 786478, i32 0, metadata !144, metadata !"operator=", metadata !"operator=", metadata !"_ZN11ap_int_baseILi32ELb0ELb1EEaSERVKS0_", metadata !145, i32 1634, metadata !260, i1 false, i1 false, i32 0, i32 0, null, i32 256, i1 false, null, null, i32 0, metadata !157, i32 1634} ; [ DW_TAG_subprogram ]
!260 = metadata !{i32 786453, i32 0, metadata !"", i32 0, i32 0, i64 0, i64 0, i64 0, i32 0, null, metadata !261, i32 0, i32 0} ; [ DW_TAG_subroutine_type ]
!261 = metadata !{metadata !262, metadata !167, metadata !179}
!262 = metadata !{i32 786448, null, null, null, i32 0, i64 0, i64 0, i64 0, i32 0, metadata !144} ; [ DW_TAG_reference_type ]
!263 = metadata !{i32 786478, i32 0, metadata !144, metadata !"operator=", metadata !"operator=", metadata !"_ZN11ap_int_baseILi32ELb0ELb1EEaSERKS0_", metadata !145, i32 1639, metadata !264, i1 false, i1 false, i32 0, i32 0, null, i32 256, i1 false, null, null, i32 0, metadata !157, i32 1639} ; [ DW_TAG_subprogram ]
!264 = metadata !{i32 786453, i32 0, metadata !"", i32 0, i32 0, i64 0, i64 0, i64 0, i32 0, null, metadata !265, i32 0, i32 0} ; [ DW_TAG_subroutine_type ]
!265 = metadata !{metadata !262, metadata !167, metadata !171}
!266 = metadata !{i32 786478, i32 0, metadata !144, metadata !"operator=", metadata !"operator=", metadata !"_ZN11ap_int_baseILi32ELb0ELb1EEaSEPKc", metadata !145, i32 1643, metadata !267, i1 false, i1 false, i32 0, i32 0, null, i32 256, i1 false, null, null, i32 0, metadata !157, i32 1643} ; [ DW_TAG_subprogram ]
!267 = metadata !{i32 786453, i32 0, metadata !"", i32 0, i32 0, i64 0, i64 0, i64 0, i32 0, null, metadata !268, i32 0, i32 0} ; [ DW_TAG_subroutine_type ]
!268 = metadata !{metadata !262, metadata !167, metadata !242}
!269 = metadata !{i32 786478, i32 0, metadata !144, metadata !"set", metadata !"set", metadata !"_ZN11ap_int_baseILi32ELb0ELb1EE3setEPKca", metadata !145, i32 1651, metadata !270, i1 false, i1 false, i32 0, i32 0, null, i32 256, i1 false, null, null, i32 0, metadata !157, i32 1651} ; [ DW_TAG_subprogram ]
!270 = metadata !{i32 786453, i32 0, metadata !"", i32 0, i32 0, i64 0, i64 0, i64 0, i32 0, null, metadata !271, i32 0, i32 0} ; [ DW_TAG_subroutine_type ]
!271 = metadata !{metadata !262, metadata !167, metadata !242, metadata !188}
!272 = metadata !{i32 786478, i32 0, metadata !144, metadata !"operator=", metadata !"operator=", metadata !"_ZN11ap_int_baseILi32ELb0ELb1EEaSEa", metadata !145, i32 1665, metadata !273, i1 false, i1 false, i32 0, i32 0, null, i32 256, i1 false, null, null, i32 0, metadata !157, i32 1665} ; [ DW_TAG_subprogram ]
!273 = metadata !{i32 786453, i32 0, metadata !"", i32 0, i32 0, i64 0, i64 0, i64 0, i32 0, null, metadata !274, i32 0, i32 0} ; [ DW_TAG_subroutine_type ]
!274 = metadata !{metadata !262, metadata !167, metadata !188}
!275 = metadata !{i32 786478, i32 0, metadata !144, metadata !"operator=", metadata !"operator=", metadata !"_ZN11ap_int_baseILi32ELb0ELb1EEaSEh", metadata !145, i32 1666, metadata !276, i1 false, i1 false, i32 0, i32 0, null, i32 256, i1 false, null, null, i32 0, metadata !157, i32 1666} ; [ DW_TAG_subprogram ]
!276 = metadata !{i32 786453, i32 0, metadata !"", i32 0, i32 0, i64 0, i64 0, i64 0, i32 0, null, metadata !277, i32 0, i32 0} ; [ DW_TAG_subroutine_type ]
!277 = metadata !{metadata !262, metadata !167, metadata !192}
!278 = metadata !{i32 786478, i32 0, metadata !144, metadata !"operator=", metadata !"operator=", metadata !"_ZN11ap_int_baseILi32ELb0ELb1EEaSEs", metadata !145, i32 1667, metadata !279, i1 false, i1 false, i32 0, i32 0, null, i32 256, i1 false, null, null, i32 0, metadata !157, i32 1667} ; [ DW_TAG_subprogram ]
!279 = metadata !{i32 786453, i32 0, metadata !"", i32 0, i32 0, i64 0, i64 0, i64 0, i32 0, null, metadata !280, i32 0, i32 0} ; [ DW_TAG_subroutine_type ]
!280 = metadata !{metadata !262, metadata !167, metadata !196}
!281 = metadata !{i32 786478, i32 0, metadata !144, metadata !"operator=", metadata !"operator=", metadata !"_ZN11ap_int_baseILi32ELb0ELb1EEaSEt", metadata !145, i32 1668, metadata !282, i1 false, i1 false, i32 0, i32 0, null, i32 256, i1 false, null, null, i32 0, metadata !157, i32 1668} ; [ DW_TAG_subprogram ]
!282 = metadata !{i32 786453, i32 0, metadata !"", i32 0, i32 0, i64 0, i64 0, i64 0, i32 0, null, metadata !283, i32 0, i32 0} ; [ DW_TAG_subroutine_type ]
!283 = metadata !{metadata !262, metadata !167, metadata !200}
!284 = metadata !{i32 786478, i32 0, metadata !144, metadata !"operator=", metadata !"operator=", metadata !"_ZN11ap_int_baseILi32ELb0ELb1EEaSEi", metadata !145, i32 1669, metadata !285, i1 false, i1 false, i32 0, i32 0, null, i32 256, i1 false, null, null, i32 0, metadata !157, i32 1669} ; [ DW_TAG_subprogram ]
!285 = metadata !{i32 786453, i32 0, metadata !"", i32 0, i32 0, i64 0, i64 0, i64 0, i32 0, null, metadata !286, i32 0, i32 0} ; [ DW_TAG_subroutine_type ]
!286 = metadata !{metadata !262, metadata !167, metadata !161}
!287 = metadata !{i32 786478, i32 0, metadata !144, metadata !"operator=", metadata !"operator=", metadata !"_ZN11ap_int_baseILi32ELb0ELb1EEaSEj", metadata !145, i32 1670, metadata !288, i1 false, i1 false, i32 0, i32 0, null, i32 256, i1 false, null, null, i32 0, metadata !157, i32 1670} ; [ DW_TAG_subprogram ]
!288 = metadata !{i32 786453, i32 0, metadata !"", i32 0, i32 0, i64 0, i64 0, i64 0, i32 0, null, metadata !289, i32 0, i32 0} ; [ DW_TAG_subroutine_type ]
!289 = metadata !{metadata !262, metadata !167, metadata !207}
!290 = metadata !{i32 786478, i32 0, metadata !144, metadata !"operator=", metadata !"operator=", metadata !"_ZN11ap_int_baseILi32ELb0ELb1EEaSEx", metadata !145, i32 1671, metadata !291, i1 false, i1 false, i32 0, i32 0, null, i32 256, i1 false, null, null, i32 0, metadata !157, i32 1671} ; [ DW_TAG_subprogram ]
!291 = metadata !{i32 786453, i32 0, metadata !"", i32 0, i32 0, i64 0, i64 0, i64 0, i32 0, null, metadata !292, i32 0, i32 0} ; [ DW_TAG_subroutine_type ]
!292 = metadata !{metadata !262, metadata !167, metadata !219}
!293 = metadata !{i32 786478, i32 0, metadata !144, metadata !"operator=", metadata !"operator=", metadata !"_ZN11ap_int_baseILi32ELb0ELb1EEaSEy", metadata !145, i32 1672, metadata !294, i1 false, i1 false, i32 0, i32 0, null, i32 256, i1 false, null, null, i32 0, metadata !157, i32 1672} ; [ DW_TAG_subprogram ]
!294 = metadata !{i32 786453, i32 0, metadata !"", i32 0, i32 0, i64 0, i64 0, i64 0, i32 0, null, metadata !295, i32 0, i32 0} ; [ DW_TAG_subroutine_type ]
!295 = metadata !{metadata !262, metadata !167, metadata !224}
!296 = metadata !{i32 786478, i32 0, metadata !144, metadata !"operator unsigned int", metadata !"operator unsigned int", metadata !"_ZNK11ap_int_baseILi32ELb0ELb1EEcvjEv", metadata !145, i32 1710, metadata !297, i1 false, i1 false, i32 0, i32 0, null, i32 256, i1 false, null, null, i32 0, metadata !157, i32 1710} ; [ DW_TAG_subprogram ]
!297 = metadata !{i32 786453, i32 0, metadata !"", i32 0, i32 0, i64 0, i64 0, i64 0, i32 0, null, metadata !298, i32 0, i32 0} ; [ DW_TAG_subroutine_type ]
!298 = metadata !{metadata !299, metadata !305}
!299 = metadata !{i32 786454, metadata !144, metadata !"RetType", metadata !145, i32 1458, i64 0, i64 0, i64 0, i32 0, metadata !300} ; [ DW_TAG_typedef ]
!300 = metadata !{i32 786454, metadata !301, metadata !"Type", metadata !145, i32 1444, i64 0, i64 0, i64 0, i32 0, metadata !207} ; [ DW_TAG_typedef ]
!301 = metadata !{i32 786434, null, metadata !"retval<4, false>", metadata !145, i32 1443, i64 8, i64 8, i32 0, i32 0, null, metadata !302, i32 0, null, metadata !303} ; [ DW_TAG_class_type ]
!302 = metadata !{i32 0}
!303 = metadata !{metadata !304, metadata !162}
!304 = metadata !{i32 786480, null, metadata !"_AP_N", metadata !161, i64 4, null, i32 0, i32 0} ; [ DW_TAG_template_value_parameter ]
!305 = metadata !{i32 786447, i32 0, metadata !"", i32 0, i32 0, i64 64, i64 64, i64 0, i32 64, metadata !172} ; [ DW_TAG_pointer_type ]
!306 = metadata !{i32 786478, i32 0, metadata !144, metadata !"to_bool", metadata !"to_bool", metadata !"_ZNK11ap_int_baseILi32ELb0ELb1EE7to_boolEv", metadata !145, i32 1716, metadata !307, i1 false, i1 false, i32 0, i32 0, null, i32 256, i1 false, null, null, i32 0, metadata !157, i32 1716} ; [ DW_TAG_subprogram ]
!307 = metadata !{i32 786453, i32 0, metadata !"", i32 0, i32 0, i64 0, i64 0, i64 0, i32 0, null, metadata !308, i32 0, i32 0} ; [ DW_TAG_subroutine_type ]
!308 = metadata !{metadata !163, metadata !305}
!309 = metadata !{i32 786478, i32 0, metadata !144, metadata !"to_uchar", metadata !"to_uchar", metadata !"_ZNK11ap_int_baseILi32ELb0ELb1EE8to_ucharEv", metadata !145, i32 1717, metadata !310, i1 false, i1 false, i32 0, i32 0, null, i32 256, i1 false, null, null, i32 0, metadata !157, i32 1717} ; [ DW_TAG_subprogram ]
!310 = metadata !{i32 786453, i32 0, metadata !"", i32 0, i32 0, i64 0, i64 0, i64 0, i32 0, null, metadata !311, i32 0, i32 0} ; [ DW_TAG_subroutine_type ]
!311 = metadata !{metadata !192, metadata !305}
!312 = metadata !{i32 786478, i32 0, metadata !144, metadata !"to_char", metadata !"to_char", metadata !"_ZNK11ap_int_baseILi32ELb0ELb1EE7to_charEv", metadata !145, i32 1718, metadata !313, i1 false, i1 false, i32 0, i32 0, null, i32 256, i1 false, null, null, i32 0, metadata !157, i32 1718} ; [ DW_TAG_subprogram ]
!313 = metadata !{i32 786453, i32 0, metadata !"", i32 0, i32 0, i64 0, i64 0, i64 0, i32 0, null, metadata !314, i32 0, i32 0} ; [ DW_TAG_subroutine_type ]
!314 = metadata !{metadata !188, metadata !305}
!315 = metadata !{i32 786478, i32 0, metadata !144, metadata !"to_ushort", metadata !"to_ushort", metadata !"_ZNK11ap_int_baseILi32ELb0ELb1EE9to_ushortEv", metadata !145, i32 1719, metadata !316, i1 false, i1 false, i32 0, i32 0, null, i32 256, i1 false, null, null, i32 0, metadata !157, i32 1719} ; [ DW_TAG_subprogram ]
!316 = metadata !{i32 786453, i32 0, metadata !"", i32 0, i32 0, i64 0, i64 0, i64 0, i32 0, null, metadata !317, i32 0, i32 0} ; [ DW_TAG_subroutine_type ]
!317 = metadata !{metadata !200, metadata !305}
!318 = metadata !{i32 786478, i32 0, metadata !144, metadata !"to_short", metadata !"to_short", metadata !"_ZNK11ap_int_baseILi32ELb0ELb1EE8to_shortEv", metadata !145, i32 1720, metadata !319, i1 false, i1 false, i32 0, i32 0, null, i32 256, i1 false, null, null, i32 0, metadata !157, i32 1720} ; [ DW_TAG_subprogram ]
!319 = metadata !{i32 786453, i32 0, metadata !"", i32 0, i32 0, i64 0, i64 0, i64 0, i32 0, null, metadata !320, i32 0, i32 0} ; [ DW_TAG_subroutine_type ]
!320 = metadata !{metadata !196, metadata !305}
!321 = metadata !{i32 786478, i32 0, metadata !144, metadata !"to_int", metadata !"to_int", metadata !"_ZNK11ap_int_baseILi32ELb0ELb1EE6to_intEv", metadata !145, i32 1721, metadata !322, i1 false, i1 false, i32 0, i32 0, null, i32 256, i1 false, null, null, i32 0, metadata !157, i32 1721} ; [ DW_TAG_subprogram ]
!322 = metadata !{i32 786453, i32 0, metadata !"", i32 0, i32 0, i64 0, i64 0, i64 0, i32 0, null, metadata !323, i32 0, i32 0} ; [ DW_TAG_subroutine_type ]
!323 = metadata !{metadata !161, metadata !305}
!324 = metadata !{i32 786478, i32 0, metadata !144, metadata !"to_uint", metadata !"to_uint", metadata !"_ZNK11ap_int_baseILi32ELb0ELb1EE7to_uintEv", metadata !145, i32 1722, metadata !325, i1 false, i1 false, i32 0, i32 0, null, i32 256, i1 false, null, null, i32 0, metadata !157, i32 1722} ; [ DW_TAG_subprogram ]
!325 = metadata !{i32 786453, i32 0, metadata !"", i32 0, i32 0, i64 0, i64 0, i64 0, i32 0, null, metadata !326, i32 0, i32 0} ; [ DW_TAG_subroutine_type ]
!326 = metadata !{metadata !207, metadata !305}
!327 = metadata !{i32 786478, i32 0, metadata !144, metadata !"to_long", metadata !"to_long", metadata !"_ZNK11ap_int_baseILi32ELb0ELb1EE7to_longEv", metadata !145, i32 1723, metadata !328, i1 false, i1 false, i32 0, i32 0, null, i32 256, i1 false, null, null, i32 0, metadata !157, i32 1723} ; [ DW_TAG_subprogram ]
!328 = metadata !{i32 786453, i32 0, metadata !"", i32 0, i32 0, i64 0, i64 0, i64 0, i32 0, null, metadata !329, i32 0, i32 0} ; [ DW_TAG_subroutine_type ]
!329 = metadata !{metadata !211, metadata !305}
!330 = metadata !{i32 786478, i32 0, metadata !144, metadata !"to_ulong", metadata !"to_ulong", metadata !"_ZNK11ap_int_baseILi32ELb0ELb1EE8to_ulongEv", metadata !145, i32 1724, metadata !331, i1 false, i1 false, i32 0, i32 0, null, i32 256, i1 false, null, null, i32 0, metadata !157, i32 1724} ; [ DW_TAG_subprogram ]
!331 = metadata !{i32 786453, i32 0, metadata !"", i32 0, i32 0, i64 0, i64 0, i64 0, i32 0, null, metadata !332, i32 0, i32 0} ; [ DW_TAG_subroutine_type ]
!332 = metadata !{metadata !215, metadata !305}
!333 = metadata !{i32 786478, i32 0, metadata !144, metadata !"to_int64", metadata !"to_int64", metadata !"_ZNK11ap_int_baseILi32ELb0ELb1EE8to_int64Ev", metadata !145, i32 1725, metadata !334, i1 false, i1 false, i32 0, i32 0, null, i32 256, i1 false, null, null, i32 0, metadata !157, i32 1725} ; [ DW_TAG_subprogram ]
!334 = metadata !{i32 786453, i32 0, metadata !"", i32 0, i32 0, i64 0, i64 0, i64 0, i32 0, null, metadata !335, i32 0, i32 0} ; [ DW_TAG_subroutine_type ]
!335 = metadata !{metadata !219, metadata !305}
!336 = metadata !{i32 786478, i32 0, metadata !144, metadata !"to_uint64", metadata !"to_uint64", metadata !"_ZNK11ap_int_baseILi32ELb0ELb1EE9to_uint64Ev", metadata !145, i32 1726, metadata !337, i1 false, i1 false, i32 0, i32 0, null, i32 256, i1 false, null, null, i32 0, metadata !157, i32 1726} ; [ DW_TAG_subprogram ]
!337 = metadata !{i32 786453, i32 0, metadata !"", i32 0, i32 0, i64 0, i64 0, i64 0, i32 0, null, metadata !338, i32 0, i32 0} ; [ DW_TAG_subroutine_type ]
!338 = metadata !{metadata !224, metadata !305}
!339 = metadata !{i32 786478, i32 0, metadata !144, metadata !"to_double", metadata !"to_double", metadata !"_ZNK11ap_int_baseILi32ELb0ELb1EE9to_doubleEv", metadata !145, i32 1727, metadata !340, i1 false, i1 false, i32 0, i32 0, null, i32 256, i1 false, null, null, i32 0, metadata !157, i32 1727} ; [ DW_TAG_subprogram ]
!340 = metadata !{i32 786453, i32 0, metadata !"", i32 0, i32 0, i64 0, i64 0, i64 0, i32 0, null, metadata !341, i32 0, i32 0} ; [ DW_TAG_subroutine_type ]
!341 = metadata !{metadata !238, metadata !305}
!342 = metadata !{i32 786478, i32 0, metadata !144, metadata !"length", metadata !"length", metadata !"_ZNK11ap_int_baseILi32ELb0ELb1EE6lengthEv", metadata !145, i32 1741, metadata !322, i1 false, i1 false, i32 0, i32 0, null, i32 256, i1 false, null, null, i32 0, metadata !157, i32 1741} ; [ DW_TAG_subprogram ]
!343 = metadata !{i32 786478, i32 0, metadata !144, metadata !"length", metadata !"length", metadata !"_ZNVK11ap_int_baseILi32ELb0ELb1EE6lengthEv", metadata !145, i32 1742, metadata !344, i1 false, i1 false, i32 0, i32 0, null, i32 256, i1 false, null, null, i32 0, metadata !157, i32 1742} ; [ DW_TAG_subprogram ]
!344 = metadata !{i32 786453, i32 0, metadata !"", i32 0, i32 0, i64 0, i64 0, i64 0, i32 0, null, metadata !345, i32 0, i32 0} ; [ DW_TAG_subroutine_type ]
!345 = metadata !{metadata !161, metadata !346}
!346 = metadata !{i32 786447, i32 0, metadata !"", i32 0, i32 0, i64 64, i64 64, i64 0, i32 64, metadata !180} ; [ DW_TAG_pointer_type ]
!347 = metadata !{i32 786478, i32 0, metadata !144, metadata !"reverse", metadata !"reverse", metadata !"_ZN11ap_int_baseILi32ELb0ELb1EE7reverseEv", metadata !145, i32 1747, metadata !348, i1 false, i1 false, i32 0, i32 0, null, i32 256, i1 false, null, null, i32 0, metadata !157, i32 1747} ; [ DW_TAG_subprogram ]
!348 = metadata !{i32 786453, i32 0, metadata !"", i32 0, i32 0, i64 0, i64 0, i64 0, i32 0, null, metadata !349, i32 0, i32 0} ; [ DW_TAG_subroutine_type ]
!349 = metadata !{metadata !262, metadata !167}
!350 = metadata !{i32 786478, i32 0, metadata !144, metadata !"iszero", metadata !"iszero", metadata !"_ZNK11ap_int_baseILi32ELb0ELb1EE6iszeroEv", metadata !145, i32 1753, metadata !307, i1 false, i1 false, i32 0, i32 0, null, i32 256, i1 false, null, null, i32 0, metadata !157, i32 1753} ; [ DW_TAG_subprogram ]
!351 = metadata !{i32 786478, i32 0, metadata !144, metadata !"is_zero", metadata !"is_zero", metadata !"_ZNK11ap_int_baseILi32ELb0ELb1EE7is_zeroEv", metadata !145, i32 1758, metadata !307, i1 false, i1 false, i32 0, i32 0, null, i32 256, i1 false, null, null, i32 0, metadata !157, i32 1758} ; [ DW_TAG_subprogram ]
!352 = metadata !{i32 786478, i32 0, metadata !144, metadata !"sign", metadata !"sign", metadata !"_ZNK11ap_int_baseILi32ELb0ELb1EE4signEv", metadata !145, i32 1763, metadata !307, i1 false, i1 false, i32 0, i32 0, null, i32 256, i1 false, null, null, i32 0, metadata !157, i32 1763} ; [ DW_TAG_subprogram ]
!353 = metadata !{i32 786478, i32 0, metadata !144, metadata !"clear", metadata !"clear", metadata !"_ZN11ap_int_baseILi32ELb0ELb1EE5clearEi", metadata !145, i32 1771, metadata !202, i1 false, i1 false, i32 0, i32 0, null, i32 256, i1 false, null, null, i32 0, metadata !157, i32 1771} ; [ DW_TAG_subprogram ]
!354 = metadata !{i32 786478, i32 0, metadata !144, metadata !"invert", metadata !"invert", metadata !"_ZN11ap_int_baseILi32ELb0ELb1EE6invertEi", metadata !145, i32 1777, metadata !202, i1 false, i1 false, i32 0, i32 0, null, i32 256, i1 false, null, null, i32 0, metadata !157, i32 1777} ; [ DW_TAG_subprogram ]
!355 = metadata !{i32 786478, i32 0, metadata !144, metadata !"test", metadata !"test", metadata !"_ZNK11ap_int_baseILi32ELb0ELb1EE4testEi", metadata !145, i32 1785, metadata !356, i1 false, i1 false, i32 0, i32 0, null, i32 256, i1 false, null, null, i32 0, metadata !157, i32 1785} ; [ DW_TAG_subprogram ]
!356 = metadata !{i32 786453, i32 0, metadata !"", i32 0, i32 0, i64 0, i64 0, i64 0, i32 0, null, metadata !357, i32 0, i32 0} ; [ DW_TAG_subroutine_type ]
!357 = metadata !{metadata !163, metadata !305, metadata !161}
!358 = metadata !{i32 786478, i32 0, metadata !144, metadata !"set", metadata !"set", metadata !"_ZN11ap_int_baseILi32ELb0ELb1EE3setEi", metadata !145, i32 1791, metadata !202, i1 false, i1 false, i32 0, i32 0, null, i32 256, i1 false, null, null, i32 0, metadata !157, i32 1791} ; [ DW_TAG_subprogram ]
!359 = metadata !{i32 786478, i32 0, metadata !144, metadata !"set", metadata !"set", metadata !"_ZN11ap_int_baseILi32ELb0ELb1EE3setEib", metadata !145, i32 1797, metadata !360, i1 false, i1 false, i32 0, i32 0, null, i32 256, i1 false, null, null, i32 0, metadata !157, i32 1797} ; [ DW_TAG_subprogram ]
!360 = metadata !{i32 786453, i32 0, metadata !"", i32 0, i32 0, i64 0, i64 0, i64 0, i32 0, null, metadata !361, i32 0, i32 0} ; [ DW_TAG_subroutine_type ]
!361 = metadata !{null, metadata !167, metadata !161, metadata !163}
!362 = metadata !{i32 786478, i32 0, metadata !144, metadata !"lrotate", metadata !"lrotate", metadata !"_ZN11ap_int_baseILi32ELb0ELb1EE7lrotateEi", metadata !145, i32 1804, metadata !202, i1 false, i1 false, i32 0, i32 0, null, i32 256, i1 false, null, null, i32 0, metadata !157, i32 1804} ; [ DW_TAG_subprogram ]
!363 = metadata !{i32 786478, i32 0, metadata !144, metadata !"rrotate", metadata !"rrotate", metadata !"_ZN11ap_int_baseILi32ELb0ELb1EE7rrotateEi", metadata !145, i32 1813, metadata !202, i1 false, i1 false, i32 0, i32 0, null, i32 256, i1 false, null, null, i32 0, metadata !157, i32 1813} ; [ DW_TAG_subprogram ]
!364 = metadata !{i32 786478, i32 0, metadata !144, metadata !"set_bit", metadata !"set_bit", metadata !"_ZN11ap_int_baseILi32ELb0ELb1EE7set_bitEib", metadata !145, i32 1821, metadata !360, i1 false, i1 false, i32 0, i32 0, null, i32 256, i1 false, null, null, i32 0, metadata !157, i32 1821} ; [ DW_TAG_subprogram ]
!365 = metadata !{i32 786478, i32 0, metadata !144, metadata !"get_bit", metadata !"get_bit", metadata !"_ZNK11ap_int_baseILi32ELb0ELb1EE7get_bitEi", metadata !145, i32 1826, metadata !356, i1 false, i1 false, i32 0, i32 0, null, i32 256, i1 false, null, null, i32 0, metadata !157, i32 1826} ; [ DW_TAG_subprogram ]
!366 = metadata !{i32 786478, i32 0, metadata !144, metadata !"b_not", metadata !"b_not", metadata !"_ZN11ap_int_baseILi32ELb0ELb1EE5b_notEv", metadata !145, i32 1831, metadata !165, i1 false, i1 false, i32 0, i32 0, null, i32 256, i1 false, null, null, i32 0, metadata !157, i32 1831} ; [ DW_TAG_subprogram ]
!367 = metadata !{i32 786478, i32 0, metadata !144, metadata !"countLeadingZeros", metadata !"countLeadingZeros", metadata !"_ZN11ap_int_baseILi32ELb0ELb1EE17countLeadingZerosEv", metadata !145, i32 1838, metadata !368, i1 false, i1 false, i32 0, i32 0, null, i32 256, i1 false, null, null, i32 0, metadata !157, i32 1838} ; [ DW_TAG_subprogram ]
!368 = metadata !{i32 786453, i32 0, metadata !"", i32 0, i32 0, i64 0, i64 0, i64 0, i32 0, null, metadata !369, i32 0, i32 0} ; [ DW_TAG_subroutine_type ]
!369 = metadata !{metadata !161, metadata !167}
!370 = metadata !{i32 786478, i32 0, metadata !144, metadata !"operator++", metadata !"operator++", metadata !"_ZN11ap_int_baseILi32ELb0ELb1EEppEv", metadata !145, i32 1895, metadata !348, i1 false, i1 false, i32 0, i32 0, null, i32 256, i1 false, null, null, i32 0, metadata !157, i32 1895} ; [ DW_TAG_subprogram ]
!371 = metadata !{i32 786478, i32 0, metadata !144, metadata !"operator--", metadata !"operator--", metadata !"_ZN11ap_int_baseILi32ELb0ELb1EEmmEv", metadata !145, i32 1899, metadata !348, i1 false, i1 false, i32 0, i32 0, null, i32 256, i1 false, null, null, i32 0, metadata !157, i32 1899} ; [ DW_TAG_subprogram ]
!372 = metadata !{i32 786478, i32 0, metadata !144, metadata !"operator++", metadata !"operator++", metadata !"_ZN11ap_int_baseILi32ELb0ELb1EEppEi", metadata !145, i32 1907, metadata !373, i1 false, i1 false, i32 0, i32 0, null, i32 256, i1 false, null, null, i32 0, metadata !157, i32 1907} ; [ DW_TAG_subprogram ]
!373 = metadata !{i32 786453, i32 0, metadata !"", i32 0, i32 0, i64 0, i64 0, i64 0, i32 0, null, metadata !374, i32 0, i32 0} ; [ DW_TAG_subroutine_type ]
!374 = metadata !{metadata !172, metadata !167, metadata !161}
!375 = metadata !{i32 786478, i32 0, metadata !144, metadata !"operator--", metadata !"operator--", metadata !"_ZN11ap_int_baseILi32ELb0ELb1EEmmEi", metadata !145, i32 1912, metadata !373, i1 false, i1 false, i32 0, i32 0, null, i32 256, i1 false, null, null, i32 0, metadata !157, i32 1912} ; [ DW_TAG_subprogram ]
!376 = metadata !{i32 786478, i32 0, metadata !144, metadata !"operator+", metadata !"operator+", metadata !"_ZNK11ap_int_baseILi32ELb0ELb1EEpsEv", metadata !145, i32 1921, metadata !377, i1 false, i1 false, i32 0, i32 0, null, i32 256, i1 false, null, null, i32 0, metadata !157, i32 1921} ; [ DW_TAG_subprogram ]
!377 = metadata !{i32 786453, i32 0, metadata !"", i32 0, i32 0, i64 0, i64 0, i64 0, i32 0, null, metadata !378, i32 0, i32 0} ; [ DW_TAG_subroutine_type ]
!378 = metadata !{metadata !144, metadata !305}
!379 = metadata !{i32 786478, i32 0, metadata !144, metadata !"operator!", metadata !"operator!", metadata !"_ZNK11ap_int_baseILi32ELb0ELb1EEntEv", metadata !145, i32 1927, metadata !307, i1 false, i1 false, i32 0, i32 0, null, i32 256, i1 false, null, null, i32 0, metadata !157, i32 1927} ; [ DW_TAG_subprogram ]
!380 = metadata !{i32 786478, i32 0, metadata !144, metadata !"operator-", metadata !"operator-", metadata !"_ZNK11ap_int_baseILi32ELb0ELb1EEngEv", metadata !145, i32 1932, metadata !381, i1 false, i1 false, i32 0, i32 0, null, i32 256, i1 false, null, null, i32 0, metadata !157, i32 1932} ; [ DW_TAG_subprogram ]
!381 = metadata !{i32 786453, i32 0, metadata !"", i32 0, i32 0, i64 0, i64 0, i64 0, i32 0, null, metadata !382, i32 0, i32 0} ; [ DW_TAG_subroutine_type ]
!382 = metadata !{metadata !383, metadata !305}
!383 = metadata !{i32 786434, null, metadata !"ap_int_base<33, true, true>", metadata !145, i32 1453, i64 64, i64 32, i32 0, i32 0, null, metadata !384, i32 0, null, metadata !680} ; [ DW_TAG_class_type ]
!384 = metadata !{metadata !385, metadata !397, metadata !401, metadata !409, metadata !415, metadata !418, metadata !421, metadata !424, metadata !427, metadata !430, metadata !433, metadata !436, metadata !439, metadata !442, metadata !445, metadata !448, metadata !451, metadata !454, metadata !457, metadata !460, metadata !463, metadata !467, metadata !470, metadata !473, metadata !474, metadata !478, metadata !481, metadata !484, metadata !487, metadata !490, metadata !493, metadata !496, metadata !499, metadata !502, metadata !505, metadata !508, metadata !511, metadata !520, metadata !523, metadata !526, metadata !529, metadata !532, metadata !535, metadata !538, metadata !541, metadata !544, metadata !547, metadata !550, metadata !553, metadata !556, metadata !557, metadata !561, metadata !564, metadata !565, metadata !566, metadata !567, metadata !568, metadata !569, metadata !572, metadata !573, metadata !576, metadata !577, metadata !578, metadata !579, metadata !580, metadata !581, metadata !584, metadata !585, metadata !586, metadata !589, metadata !590, metadata !593, metadata !594, metadata !598, metadata !602, metadata !603, metadata !606, metadata !607, metadata !646, metadata !647, metadata !648, metadata !649, metadata !652, metadata !653, metadata !654, metadata !655, metadata !656, metadata !657, metadata !658, metadata !659, metadata !660, metadata !661, metadata !662, metadata !663, metadata !673, metadata !676, metadata !679}
!385 = metadata !{i32 786460, metadata !383, null, metadata !145, i32 0, i64 0, i64 0, i64 0, i32 0, metadata !386} ; [ DW_TAG_inheritance ]
!386 = metadata !{i32 786434, null, metadata !"ssdm_int<33 + 1024 * 0, true>", metadata !149, i32 35, i64 64, i64 32, i32 0, i32 0, null, metadata !387, i32 0, null, metadata !394} ; [ DW_TAG_class_type ]
!387 = metadata !{metadata !388, metadata !390}
!388 = metadata !{i32 786445, metadata !386, metadata !"V", metadata !149, i32 35, i64 33, i64 32, i64 0, i32 0, metadata !389} ; [ DW_TAG_member ]
!389 = metadata !{i32 786468, null, metadata !"int33", null, i32 0, i64 33, i64 32, i64 0, i32 0, i32 5} ; [ DW_TAG_base_type ]
!390 = metadata !{i32 786478, i32 0, metadata !386, metadata !"ssdm_int", metadata !"ssdm_int", metadata !"", metadata !149, i32 35, metadata !391, i1 false, i1 false, i32 0, i32 0, null, i32 256, i1 false, null, null, i32 0, metadata !157, i32 35} ; [ DW_TAG_subprogram ]
!391 = metadata !{i32 786453, i32 0, metadata !"", i32 0, i32 0, i64 0, i64 0, i64 0, i32 0, null, metadata !392, i32 0, i32 0} ; [ DW_TAG_subroutine_type ]
!392 = metadata !{null, metadata !393}
!393 = metadata !{i32 786447, i32 0, metadata !"", i32 0, i32 0, i64 64, i64 64, i64 0, i32 64, metadata !386} ; [ DW_TAG_pointer_type ]
!394 = metadata !{metadata !395, metadata !396}
!395 = metadata !{i32 786480, null, metadata !"_AP_N", metadata !161, i64 33, null, i32 0, i32 0} ; [ DW_TAG_template_value_parameter ]
!396 = metadata !{i32 786480, null, metadata !"_AP_S", metadata !163, i64 1, null, i32 0, i32 0} ; [ DW_TAG_template_value_parameter ]
!397 = metadata !{i32 786478, i32 0, metadata !383, metadata !"ap_int_base", metadata !"ap_int_base", metadata !"", metadata !145, i32 1494, metadata !398, i1 false, i1 false, i32 0, i32 0, null, i32 256, i1 false, null, null, i32 0, metadata !157, i32 1494} ; [ DW_TAG_subprogram ]
!398 = metadata !{i32 786453, i32 0, metadata !"", i32 0, i32 0, i64 0, i64 0, i64 0, i32 0, null, metadata !399, i32 0, i32 0} ; [ DW_TAG_subroutine_type ]
!399 = metadata !{null, metadata !400}
!400 = metadata !{i32 786447, i32 0, metadata !"", i32 0, i32 0, i64 64, i64 64, i64 0, i32 64, metadata !383} ; [ DW_TAG_pointer_type ]
!401 = metadata !{i32 786478, i32 0, metadata !383, metadata !"ap_int_base<33, true>", metadata !"ap_int_base<33, true>", metadata !"", metadata !145, i32 1506, metadata !402, i1 false, i1 false, i32 0, i32 0, null, i32 256, i1 false, null, metadata !406, i32 0, metadata !157, i32 1506} ; [ DW_TAG_subprogram ]
!402 = metadata !{i32 786453, i32 0, metadata !"", i32 0, i32 0, i64 0, i64 0, i64 0, i32 0, null, metadata !403, i32 0, i32 0} ; [ DW_TAG_subroutine_type ]
!403 = metadata !{null, metadata !400, metadata !404}
!404 = metadata !{i32 786448, null, null, null, i32 0, i64 0, i64 0, i64 0, i32 0, metadata !405} ; [ DW_TAG_reference_type ]
!405 = metadata !{i32 786470, null, metadata !"", null, i32 0, i64 0, i64 0, i64 0, i32 0, metadata !383} ; [ DW_TAG_const_type ]
!406 = metadata !{metadata !407, metadata !408}
!407 = metadata !{i32 786480, null, metadata !"_AP_W2", metadata !161, i64 33, null, i32 0, i32 0} ; [ DW_TAG_template_value_parameter ]
!408 = metadata !{i32 786480, null, metadata !"_AP_S2", metadata !163, i64 1, null, i32 0, i32 0} ; [ DW_TAG_template_value_parameter ]
!409 = metadata !{i32 786478, i32 0, metadata !383, metadata !"ap_int_base<33, true>", metadata !"ap_int_base<33, true>", metadata !"", metadata !145, i32 1509, metadata !410, i1 false, i1 false, i32 0, i32 0, null, i32 256, i1 false, null, metadata !406, i32 0, metadata !157, i32 1509} ; [ DW_TAG_subprogram ]
!410 = metadata !{i32 786453, i32 0, metadata !"", i32 0, i32 0, i64 0, i64 0, i64 0, i32 0, null, metadata !411, i32 0, i32 0} ; [ DW_TAG_subroutine_type ]
!411 = metadata !{null, metadata !400, metadata !412}
!412 = metadata !{i32 786448, null, null, null, i32 0, i64 0, i64 0, i64 0, i32 0, metadata !413} ; [ DW_TAG_reference_type ]
!413 = metadata !{i32 786470, null, metadata !"", null, i32 0, i64 0, i64 0, i64 0, i32 0, metadata !414} ; [ DW_TAG_const_type ]
!414 = metadata !{i32 786485, null, metadata !"", null, i32 0, i64 0, i64 0, i64 0, i32 0, metadata !383} ; [ DW_TAG_volatile_type ]
!415 = metadata !{i32 786478, i32 0, metadata !383, metadata !"ap_int_base", metadata !"ap_int_base", metadata !"", metadata !145, i32 1516, metadata !416, i1 false, i1 false, i32 0, i32 0, null, i32 384, i1 false, null, null, i32 0, metadata !157, i32 1516} ; [ DW_TAG_subprogram ]
!416 = metadata !{i32 786453, i32 0, metadata !"", i32 0, i32 0, i64 0, i64 0, i64 0, i32 0, null, metadata !417, i32 0, i32 0} ; [ DW_TAG_subroutine_type ]
!417 = metadata !{null, metadata !400, metadata !163}
!418 = metadata !{i32 786478, i32 0, metadata !383, metadata !"ap_int_base", metadata !"ap_int_base", metadata !"", metadata !145, i32 1517, metadata !419, i1 false, i1 false, i32 0, i32 0, null, i32 384, i1 false, null, null, i32 0, metadata !157, i32 1517} ; [ DW_TAG_subprogram ]
!419 = metadata !{i32 786453, i32 0, metadata !"", i32 0, i32 0, i64 0, i64 0, i64 0, i32 0, null, metadata !420, i32 0, i32 0} ; [ DW_TAG_subroutine_type ]
!420 = metadata !{null, metadata !400, metadata !188}
!421 = metadata !{i32 786478, i32 0, metadata !383, metadata !"ap_int_base", metadata !"ap_int_base", metadata !"", metadata !145, i32 1518, metadata !422, i1 false, i1 false, i32 0, i32 0, null, i32 384, i1 false, null, null, i32 0, metadata !157, i32 1518} ; [ DW_TAG_subprogram ]
!422 = metadata !{i32 786453, i32 0, metadata !"", i32 0, i32 0, i64 0, i64 0, i64 0, i32 0, null, metadata !423, i32 0, i32 0} ; [ DW_TAG_subroutine_type ]
!423 = metadata !{null, metadata !400, metadata !192}
!424 = metadata !{i32 786478, i32 0, metadata !383, metadata !"ap_int_base", metadata !"ap_int_base", metadata !"", metadata !145, i32 1519, metadata !425, i1 false, i1 false, i32 0, i32 0, null, i32 384, i1 false, null, null, i32 0, metadata !157, i32 1519} ; [ DW_TAG_subprogram ]
!425 = metadata !{i32 786453, i32 0, metadata !"", i32 0, i32 0, i64 0, i64 0, i64 0, i32 0, null, metadata !426, i32 0, i32 0} ; [ DW_TAG_subroutine_type ]
!426 = metadata !{null, metadata !400, metadata !196}
!427 = metadata !{i32 786478, i32 0, metadata !383, metadata !"ap_int_base", metadata !"ap_int_base", metadata !"", metadata !145, i32 1520, metadata !428, i1 false, i1 false, i32 0, i32 0, null, i32 384, i1 false, null, null, i32 0, metadata !157, i32 1520} ; [ DW_TAG_subprogram ]
!428 = metadata !{i32 786453, i32 0, metadata !"", i32 0, i32 0, i64 0, i64 0, i64 0, i32 0, null, metadata !429, i32 0, i32 0} ; [ DW_TAG_subroutine_type ]
!429 = metadata !{null, metadata !400, metadata !200}
!430 = metadata !{i32 786478, i32 0, metadata !383, metadata !"ap_int_base", metadata !"ap_int_base", metadata !"", metadata !145, i32 1521, metadata !431, i1 false, i1 false, i32 0, i32 0, null, i32 384, i1 false, null, null, i32 0, metadata !157, i32 1521} ; [ DW_TAG_subprogram ]
!431 = metadata !{i32 786453, i32 0, metadata !"", i32 0, i32 0, i64 0, i64 0, i64 0, i32 0, null, metadata !432, i32 0, i32 0} ; [ DW_TAG_subroutine_type ]
!432 = metadata !{null, metadata !400, metadata !161}
!433 = metadata !{i32 786478, i32 0, metadata !383, metadata !"ap_int_base", metadata !"ap_int_base", metadata !"", metadata !145, i32 1522, metadata !434, i1 false, i1 false, i32 0, i32 0, null, i32 384, i1 false, null, null, i32 0, metadata !157, i32 1522} ; [ DW_TAG_subprogram ]
!434 = metadata !{i32 786453, i32 0, metadata !"", i32 0, i32 0, i64 0, i64 0, i64 0, i32 0, null, metadata !435, i32 0, i32 0} ; [ DW_TAG_subroutine_type ]
!435 = metadata !{null, metadata !400, metadata !207}
!436 = metadata !{i32 786478, i32 0, metadata !383, metadata !"ap_int_base", metadata !"ap_int_base", metadata !"", metadata !145, i32 1523, metadata !437, i1 false, i1 false, i32 0, i32 0, null, i32 384, i1 false, null, null, i32 0, metadata !157, i32 1523} ; [ DW_TAG_subprogram ]
!437 = metadata !{i32 786453, i32 0, metadata !"", i32 0, i32 0, i64 0, i64 0, i64 0, i32 0, null, metadata !438, i32 0, i32 0} ; [ DW_TAG_subroutine_type ]
!438 = metadata !{null, metadata !400, metadata !211}
!439 = metadata !{i32 786478, i32 0, metadata !383, metadata !"ap_int_base", metadata !"ap_int_base", metadata !"", metadata !145, i32 1524, metadata !440, i1 false, i1 false, i32 0, i32 0, null, i32 384, i1 false, null, null, i32 0, metadata !157, i32 1524} ; [ DW_TAG_subprogram ]
!440 = metadata !{i32 786453, i32 0, metadata !"", i32 0, i32 0, i64 0, i64 0, i64 0, i32 0, null, metadata !441, i32 0, i32 0} ; [ DW_TAG_subroutine_type ]
!441 = metadata !{null, metadata !400, metadata !215}
!442 = metadata !{i32 786478, i32 0, metadata !383, metadata !"ap_int_base", metadata !"ap_int_base", metadata !"", metadata !145, i32 1525, metadata !443, i1 false, i1 false, i32 0, i32 0, null, i32 384, i1 false, null, null, i32 0, metadata !157, i32 1525} ; [ DW_TAG_subprogram ]
!443 = metadata !{i32 786453, i32 0, metadata !"", i32 0, i32 0, i64 0, i64 0, i64 0, i32 0, null, metadata !444, i32 0, i32 0} ; [ DW_TAG_subroutine_type ]
!444 = metadata !{null, metadata !400, metadata !219}
!445 = metadata !{i32 786478, i32 0, metadata !383, metadata !"ap_int_base", metadata !"ap_int_base", metadata !"", metadata !145, i32 1526, metadata !446, i1 false, i1 false, i32 0, i32 0, null, i32 384, i1 false, null, null, i32 0, metadata !157, i32 1526} ; [ DW_TAG_subprogram ]
!446 = metadata !{i32 786453, i32 0, metadata !"", i32 0, i32 0, i64 0, i64 0, i64 0, i32 0, null, metadata !447, i32 0, i32 0} ; [ DW_TAG_subroutine_type ]
!447 = metadata !{null, metadata !400, metadata !224}
!448 = metadata !{i32 786478, i32 0, metadata !383, metadata !"ap_int_base", metadata !"ap_int_base", metadata !"", metadata !145, i32 1527, metadata !449, i1 false, i1 false, i32 0, i32 0, null, i32 384, i1 false, null, null, i32 0, metadata !157, i32 1527} ; [ DW_TAG_subprogram ]
!449 = metadata !{i32 786453, i32 0, metadata !"", i32 0, i32 0, i64 0, i64 0, i64 0, i32 0, null, metadata !450, i32 0, i32 0} ; [ DW_TAG_subroutine_type ]
!450 = metadata !{null, metadata !400, metadata !229}
!451 = metadata !{i32 786478, i32 0, metadata !383, metadata !"ap_int_base", metadata !"ap_int_base", metadata !"", metadata !145, i32 1528, metadata !452, i1 false, i1 false, i32 0, i32 0, null, i32 384, i1 false, null, null, i32 0, metadata !157, i32 1528} ; [ DW_TAG_subprogram ]
!452 = metadata !{i32 786453, i32 0, metadata !"", i32 0, i32 0, i64 0, i64 0, i64 0, i32 0, null, metadata !453, i32 0, i32 0} ; [ DW_TAG_subroutine_type ]
!453 = metadata !{null, metadata !400, metadata !234}
!454 = metadata !{i32 786478, i32 0, metadata !383, metadata !"ap_int_base", metadata !"ap_int_base", metadata !"", metadata !145, i32 1529, metadata !455, i1 false, i1 false, i32 0, i32 0, null, i32 384, i1 false, null, null, i32 0, metadata !157, i32 1529} ; [ DW_TAG_subprogram ]
!455 = metadata !{i32 786453, i32 0, metadata !"", i32 0, i32 0, i64 0, i64 0, i64 0, i32 0, null, metadata !456, i32 0, i32 0} ; [ DW_TAG_subroutine_type ]
!456 = metadata !{null, metadata !400, metadata !238}
!457 = metadata !{i32 786478, i32 0, metadata !383, metadata !"ap_int_base", metadata !"ap_int_base", metadata !"", metadata !145, i32 1556, metadata !458, i1 false, i1 false, i32 0, i32 0, null, i32 256, i1 false, null, null, i32 0, metadata !157, i32 1556} ; [ DW_TAG_subprogram ]
!458 = metadata !{i32 786453, i32 0, metadata !"", i32 0, i32 0, i64 0, i64 0, i64 0, i32 0, null, metadata !459, i32 0, i32 0} ; [ DW_TAG_subroutine_type ]
!459 = metadata !{null, metadata !400, metadata !242}
!460 = metadata !{i32 786478, i32 0, metadata !383, metadata !"ap_int_base", metadata !"ap_int_base", metadata !"", metadata !145, i32 1563, metadata !461, i1 false, i1 false, i32 0, i32 0, null, i32 256, i1 false, null, null, i32 0, metadata !157, i32 1563} ; [ DW_TAG_subprogram ]
!461 = metadata !{i32 786453, i32 0, metadata !"", i32 0, i32 0, i64 0, i64 0, i64 0, i32 0, null, metadata !462, i32 0, i32 0} ; [ DW_TAG_subroutine_type ]
!462 = metadata !{null, metadata !400, metadata !242, metadata !188}
!463 = metadata !{i32 786478, i32 0, metadata !383, metadata !"read", metadata !"read", metadata !"_ZNV11ap_int_baseILi33ELb1ELb1EE4readEv", metadata !145, i32 1584, metadata !464, i1 false, i1 false, i32 0, i32 0, null, i32 256, i1 false, null, null, i32 0, metadata !157, i32 1584} ; [ DW_TAG_subprogram ]
!464 = metadata !{i32 786453, i32 0, metadata !"", i32 0, i32 0, i64 0, i64 0, i64 0, i32 0, null, metadata !465, i32 0, i32 0} ; [ DW_TAG_subroutine_type ]
!465 = metadata !{metadata !383, metadata !466}
!466 = metadata !{i32 786447, i32 0, metadata !"", i32 0, i32 0, i64 64, i64 64, i64 0, i32 64, metadata !414} ; [ DW_TAG_pointer_type ]
!467 = metadata !{i32 786478, i32 0, metadata !383, metadata !"write", metadata !"write", metadata !"_ZNV11ap_int_baseILi33ELb1ELb1EE5writeERKS0_", metadata !145, i32 1590, metadata !468, i1 false, i1 false, i32 0, i32 0, null, i32 256, i1 false, null, null, i32 0, metadata !157, i32 1590} ; [ DW_TAG_subprogram ]
!468 = metadata !{i32 786453, i32 0, metadata !"", i32 0, i32 0, i64 0, i64 0, i64 0, i32 0, null, metadata !469, i32 0, i32 0} ; [ DW_TAG_subroutine_type ]
!469 = metadata !{null, metadata !466, metadata !404}
!470 = metadata !{i32 786478, i32 0, metadata !383, metadata !"operator=", metadata !"operator=", metadata !"_ZNV11ap_int_baseILi33ELb1ELb1EEaSERVKS0_", metadata !145, i32 1602, metadata !471, i1 false, i1 false, i32 0, i32 0, null, i32 256, i1 false, null, null, i32 0, metadata !157, i32 1602} ; [ DW_TAG_subprogram ]
!471 = metadata !{i32 786453, i32 0, metadata !"", i32 0, i32 0, i64 0, i64 0, i64 0, i32 0, null, metadata !472, i32 0, i32 0} ; [ DW_TAG_subroutine_type ]
!472 = metadata !{null, metadata !466, metadata !412}
!473 = metadata !{i32 786478, i32 0, metadata !383, metadata !"operator=", metadata !"operator=", metadata !"_ZNV11ap_int_baseILi33ELb1ELb1EEaSERKS0_", metadata !145, i32 1611, metadata !468, i1 false, i1 false, i32 0, i32 0, null, i32 256, i1 false, null, null, i32 0, metadata !157, i32 1611} ; [ DW_TAG_subprogram ]
!474 = metadata !{i32 786478, i32 0, metadata !383, metadata !"operator=", metadata !"operator=", metadata !"_ZN11ap_int_baseILi33ELb1ELb1EEaSERVKS0_", metadata !145, i32 1634, metadata !475, i1 false, i1 false, i32 0, i32 0, null, i32 256, i1 false, null, null, i32 0, metadata !157, i32 1634} ; [ DW_TAG_subprogram ]
!475 = metadata !{i32 786453, i32 0, metadata !"", i32 0, i32 0, i64 0, i64 0, i64 0, i32 0, null, metadata !476, i32 0, i32 0} ; [ DW_TAG_subroutine_type ]
!476 = metadata !{metadata !477, metadata !400, metadata !412}
!477 = metadata !{i32 786448, null, null, null, i32 0, i64 0, i64 0, i64 0, i32 0, metadata !383} ; [ DW_TAG_reference_type ]
!478 = metadata !{i32 786478, i32 0, metadata !383, metadata !"operator=", metadata !"operator=", metadata !"_ZN11ap_int_baseILi33ELb1ELb1EEaSERKS0_", metadata !145, i32 1639, metadata !479, i1 false, i1 false, i32 0, i32 0, null, i32 256, i1 false, null, null, i32 0, metadata !157, i32 1639} ; [ DW_TAG_subprogram ]
!479 = metadata !{i32 786453, i32 0, metadata !"", i32 0, i32 0, i64 0, i64 0, i64 0, i32 0, null, metadata !480, i32 0, i32 0} ; [ DW_TAG_subroutine_type ]
!480 = metadata !{metadata !477, metadata !400, metadata !404}
!481 = metadata !{i32 786478, i32 0, metadata !383, metadata !"operator=", metadata !"operator=", metadata !"_ZN11ap_int_baseILi33ELb1ELb1EEaSEPKc", metadata !145, i32 1643, metadata !482, i1 false, i1 false, i32 0, i32 0, null, i32 256, i1 false, null, null, i32 0, metadata !157, i32 1643} ; [ DW_TAG_subprogram ]
!482 = metadata !{i32 786453, i32 0, metadata !"", i32 0, i32 0, i64 0, i64 0, i64 0, i32 0, null, metadata !483, i32 0, i32 0} ; [ DW_TAG_subroutine_type ]
!483 = metadata !{metadata !477, metadata !400, metadata !242}
!484 = metadata !{i32 786478, i32 0, metadata !383, metadata !"set", metadata !"set", metadata !"_ZN11ap_int_baseILi33ELb1ELb1EE3setEPKca", metadata !145, i32 1651, metadata !485, i1 false, i1 false, i32 0, i32 0, null, i32 256, i1 false, null, null, i32 0, metadata !157, i32 1651} ; [ DW_TAG_subprogram ]
!485 = metadata !{i32 786453, i32 0, metadata !"", i32 0, i32 0, i64 0, i64 0, i64 0, i32 0, null, metadata !486, i32 0, i32 0} ; [ DW_TAG_subroutine_type ]
!486 = metadata !{metadata !477, metadata !400, metadata !242, metadata !188}
!487 = metadata !{i32 786478, i32 0, metadata !383, metadata !"operator=", metadata !"operator=", metadata !"_ZN11ap_int_baseILi33ELb1ELb1EEaSEa", metadata !145, i32 1665, metadata !488, i1 false, i1 false, i32 0, i32 0, null, i32 256, i1 false, null, null, i32 0, metadata !157, i32 1665} ; [ DW_TAG_subprogram ]
!488 = metadata !{i32 786453, i32 0, metadata !"", i32 0, i32 0, i64 0, i64 0, i64 0, i32 0, null, metadata !489, i32 0, i32 0} ; [ DW_TAG_subroutine_type ]
!489 = metadata !{metadata !477, metadata !400, metadata !188}
!490 = metadata !{i32 786478, i32 0, metadata !383, metadata !"operator=", metadata !"operator=", metadata !"_ZN11ap_int_baseILi33ELb1ELb1EEaSEh", metadata !145, i32 1666, metadata !491, i1 false, i1 false, i32 0, i32 0, null, i32 256, i1 false, null, null, i32 0, metadata !157, i32 1666} ; [ DW_TAG_subprogram ]
!491 = metadata !{i32 786453, i32 0, metadata !"", i32 0, i32 0, i64 0, i64 0, i64 0, i32 0, null, metadata !492, i32 0, i32 0} ; [ DW_TAG_subroutine_type ]
!492 = metadata !{metadata !477, metadata !400, metadata !192}
!493 = metadata !{i32 786478, i32 0, metadata !383, metadata !"operator=", metadata !"operator=", metadata !"_ZN11ap_int_baseILi33ELb1ELb1EEaSEs", metadata !145, i32 1667, metadata !494, i1 false, i1 false, i32 0, i32 0, null, i32 256, i1 false, null, null, i32 0, metadata !157, i32 1667} ; [ DW_TAG_subprogram ]
!494 = metadata !{i32 786453, i32 0, metadata !"", i32 0, i32 0, i64 0, i64 0, i64 0, i32 0, null, metadata !495, i32 0, i32 0} ; [ DW_TAG_subroutine_type ]
!495 = metadata !{metadata !477, metadata !400, metadata !196}
!496 = metadata !{i32 786478, i32 0, metadata !383, metadata !"operator=", metadata !"operator=", metadata !"_ZN11ap_int_baseILi33ELb1ELb1EEaSEt", metadata !145, i32 1668, metadata !497, i1 false, i1 false, i32 0, i32 0, null, i32 256, i1 false, null, null, i32 0, metadata !157, i32 1668} ; [ DW_TAG_subprogram ]
!497 = metadata !{i32 786453, i32 0, metadata !"", i32 0, i32 0, i64 0, i64 0, i64 0, i32 0, null, metadata !498, i32 0, i32 0} ; [ DW_TAG_subroutine_type ]
!498 = metadata !{metadata !477, metadata !400, metadata !200}
!499 = metadata !{i32 786478, i32 0, metadata !383, metadata !"operator=", metadata !"operator=", metadata !"_ZN11ap_int_baseILi33ELb1ELb1EEaSEi", metadata !145, i32 1669, metadata !500, i1 false, i1 false, i32 0, i32 0, null, i32 256, i1 false, null, null, i32 0, metadata !157, i32 1669} ; [ DW_TAG_subprogram ]
!500 = metadata !{i32 786453, i32 0, metadata !"", i32 0, i32 0, i64 0, i64 0, i64 0, i32 0, null, metadata !501, i32 0, i32 0} ; [ DW_TAG_subroutine_type ]
!501 = metadata !{metadata !477, metadata !400, metadata !161}
!502 = metadata !{i32 786478, i32 0, metadata !383, metadata !"operator=", metadata !"operator=", metadata !"_ZN11ap_int_baseILi33ELb1ELb1EEaSEj", metadata !145, i32 1670, metadata !503, i1 false, i1 false, i32 0, i32 0, null, i32 256, i1 false, null, null, i32 0, metadata !157, i32 1670} ; [ DW_TAG_subprogram ]
!503 = metadata !{i32 786453, i32 0, metadata !"", i32 0, i32 0, i64 0, i64 0, i64 0, i32 0, null, metadata !504, i32 0, i32 0} ; [ DW_TAG_subroutine_type ]
!504 = metadata !{metadata !477, metadata !400, metadata !207}
!505 = metadata !{i32 786478, i32 0, metadata !383, metadata !"operator=", metadata !"operator=", metadata !"_ZN11ap_int_baseILi33ELb1ELb1EEaSEx", metadata !145, i32 1671, metadata !506, i1 false, i1 false, i32 0, i32 0, null, i32 256, i1 false, null, null, i32 0, metadata !157, i32 1671} ; [ DW_TAG_subprogram ]
!506 = metadata !{i32 786453, i32 0, metadata !"", i32 0, i32 0, i64 0, i64 0, i64 0, i32 0, null, metadata !507, i32 0, i32 0} ; [ DW_TAG_subroutine_type ]
!507 = metadata !{metadata !477, metadata !400, metadata !219}
!508 = metadata !{i32 786478, i32 0, metadata !383, metadata !"operator=", metadata !"operator=", metadata !"_ZN11ap_int_baseILi33ELb1ELb1EEaSEy", metadata !145, i32 1672, metadata !509, i1 false, i1 false, i32 0, i32 0, null, i32 256, i1 false, null, null, i32 0, metadata !157, i32 1672} ; [ DW_TAG_subprogram ]
!509 = metadata !{i32 786453, i32 0, metadata !"", i32 0, i32 0, i64 0, i64 0, i64 0, i32 0, null, metadata !510, i32 0, i32 0} ; [ DW_TAG_subroutine_type ]
!510 = metadata !{metadata !477, metadata !400, metadata !224}
!511 = metadata !{i32 786478, i32 0, metadata !383, metadata !"operator long long", metadata !"operator long long", metadata !"_ZNK11ap_int_baseILi33ELb1ELb1EEcvxEv", metadata !145, i32 1710, metadata !512, i1 false, i1 false, i32 0, i32 0, null, i32 256, i1 false, null, null, i32 0, metadata !157, i32 1710} ; [ DW_TAG_subprogram ]
!512 = metadata !{i32 786453, i32 0, metadata !"", i32 0, i32 0, i64 0, i64 0, i64 0, i32 0, null, metadata !513, i32 0, i32 0} ; [ DW_TAG_subroutine_type ]
!513 = metadata !{metadata !514, metadata !519}
!514 = metadata !{i32 786454, metadata !383, metadata !"RetType", metadata !145, i32 1458, i64 0, i64 0, i64 0, i32 0, metadata !515} ; [ DW_TAG_typedef ]
!515 = metadata !{i32 786454, metadata !516, metadata !"Type", metadata !145, i32 1415, i64 0, i64 0, i64 0, i32 0, metadata !219} ; [ DW_TAG_typedef ]
!516 = metadata !{i32 786434, null, metadata !"retval<5, true>", metadata !145, i32 1414, i64 8, i64 8, i32 0, i32 0, null, metadata !302, i32 0, null, metadata !517} ; [ DW_TAG_class_type ]
!517 = metadata !{metadata !518, metadata !396}
!518 = metadata !{i32 786480, null, metadata !"_AP_N", metadata !161, i64 5, null, i32 0, i32 0} ; [ DW_TAG_template_value_parameter ]
!519 = metadata !{i32 786447, i32 0, metadata !"", i32 0, i32 0, i64 64, i64 64, i64 0, i32 64, metadata !405} ; [ DW_TAG_pointer_type ]
!520 = metadata !{i32 786478, i32 0, metadata !383, metadata !"to_bool", metadata !"to_bool", metadata !"_ZNK11ap_int_baseILi33ELb1ELb1EE7to_boolEv", metadata !145, i32 1716, metadata !521, i1 false, i1 false, i32 0, i32 0, null, i32 256, i1 false, null, null, i32 0, metadata !157, i32 1716} ; [ DW_TAG_subprogram ]
!521 = metadata !{i32 786453, i32 0, metadata !"", i32 0, i32 0, i64 0, i64 0, i64 0, i32 0, null, metadata !522, i32 0, i32 0} ; [ DW_TAG_subroutine_type ]
!522 = metadata !{metadata !163, metadata !519}
!523 = metadata !{i32 786478, i32 0, metadata !383, metadata !"to_uchar", metadata !"to_uchar", metadata !"_ZNK11ap_int_baseILi33ELb1ELb1EE8to_ucharEv", metadata !145, i32 1717, metadata !524, i1 false, i1 false, i32 0, i32 0, null, i32 256, i1 false, null, null, i32 0, metadata !157, i32 1717} ; [ DW_TAG_subprogram ]
!524 = metadata !{i32 786453, i32 0, metadata !"", i32 0, i32 0, i64 0, i64 0, i64 0, i32 0, null, metadata !525, i32 0, i32 0} ; [ DW_TAG_subroutine_type ]
!525 = metadata !{metadata !192, metadata !519}
!526 = metadata !{i32 786478, i32 0, metadata !383, metadata !"to_char", metadata !"to_char", metadata !"_ZNK11ap_int_baseILi33ELb1ELb1EE7to_charEv", metadata !145, i32 1718, metadata !527, i1 false, i1 false, i32 0, i32 0, null, i32 256, i1 false, null, null, i32 0, metadata !157, i32 1718} ; [ DW_TAG_subprogram ]
!527 = metadata !{i32 786453, i32 0, metadata !"", i32 0, i32 0, i64 0, i64 0, i64 0, i32 0, null, metadata !528, i32 0, i32 0} ; [ DW_TAG_subroutine_type ]
!528 = metadata !{metadata !188, metadata !519}
!529 = metadata !{i32 786478, i32 0, metadata !383, metadata !"to_ushort", metadata !"to_ushort", metadata !"_ZNK11ap_int_baseILi33ELb1ELb1EE9to_ushortEv", metadata !145, i32 1719, metadata !530, i1 false, i1 false, i32 0, i32 0, null, i32 256, i1 false, null, null, i32 0, metadata !157, i32 1719} ; [ DW_TAG_subprogram ]
!530 = metadata !{i32 786453, i32 0, metadata !"", i32 0, i32 0, i64 0, i64 0, i64 0, i32 0, null, metadata !531, i32 0, i32 0} ; [ DW_TAG_subroutine_type ]
!531 = metadata !{metadata !200, metadata !519}
!532 = metadata !{i32 786478, i32 0, metadata !383, metadata !"to_short", metadata !"to_short", metadata !"_ZNK11ap_int_baseILi33ELb1ELb1EE8to_shortEv", metadata !145, i32 1720, metadata !533, i1 false, i1 false, i32 0, i32 0, null, i32 256, i1 false, null, null, i32 0, metadata !157, i32 1720} ; [ DW_TAG_subprogram ]
!533 = metadata !{i32 786453, i32 0, metadata !"", i32 0, i32 0, i64 0, i64 0, i64 0, i32 0, null, metadata !534, i32 0, i32 0} ; [ DW_TAG_subroutine_type ]
!534 = metadata !{metadata !196, metadata !519}
!535 = metadata !{i32 786478, i32 0, metadata !383, metadata !"to_int", metadata !"to_int", metadata !"_ZNK11ap_int_baseILi33ELb1ELb1EE6to_intEv", metadata !145, i32 1721, metadata !536, i1 false, i1 false, i32 0, i32 0, null, i32 256, i1 false, null, null, i32 0, metadata !157, i32 1721} ; [ DW_TAG_subprogram ]
!536 = metadata !{i32 786453, i32 0, metadata !"", i32 0, i32 0, i64 0, i64 0, i64 0, i32 0, null, metadata !537, i32 0, i32 0} ; [ DW_TAG_subroutine_type ]
!537 = metadata !{metadata !161, metadata !519}
!538 = metadata !{i32 786478, i32 0, metadata !383, metadata !"to_uint", metadata !"to_uint", metadata !"_ZNK11ap_int_baseILi33ELb1ELb1EE7to_uintEv", metadata !145, i32 1722, metadata !539, i1 false, i1 false, i32 0, i32 0, null, i32 256, i1 false, null, null, i32 0, metadata !157, i32 1722} ; [ DW_TAG_subprogram ]
!539 = metadata !{i32 786453, i32 0, metadata !"", i32 0, i32 0, i64 0, i64 0, i64 0, i32 0, null, metadata !540, i32 0, i32 0} ; [ DW_TAG_subroutine_type ]
!540 = metadata !{metadata !207, metadata !519}
!541 = metadata !{i32 786478, i32 0, metadata !383, metadata !"to_long", metadata !"to_long", metadata !"_ZNK11ap_int_baseILi33ELb1ELb1EE7to_longEv", metadata !145, i32 1723, metadata !542, i1 false, i1 false, i32 0, i32 0, null, i32 256, i1 false, null, null, i32 0, metadata !157, i32 1723} ; [ DW_TAG_subprogram ]
!542 = metadata !{i32 786453, i32 0, metadata !"", i32 0, i32 0, i64 0, i64 0, i64 0, i32 0, null, metadata !543, i32 0, i32 0} ; [ DW_TAG_subroutine_type ]
!543 = metadata !{metadata !211, metadata !519}
!544 = metadata !{i32 786478, i32 0, metadata !383, metadata !"to_ulong", metadata !"to_ulong", metadata !"_ZNK11ap_int_baseILi33ELb1ELb1EE8to_ulongEv", metadata !145, i32 1724, metadata !545, i1 false, i1 false, i32 0, i32 0, null, i32 256, i1 false, null, null, i32 0, metadata !157, i32 1724} ; [ DW_TAG_subprogram ]
!545 = metadata !{i32 786453, i32 0, metadata !"", i32 0, i32 0, i64 0, i64 0, i64 0, i32 0, null, metadata !546, i32 0, i32 0} ; [ DW_TAG_subroutine_type ]
!546 = metadata !{metadata !215, metadata !519}
!547 = metadata !{i32 786478, i32 0, metadata !383, metadata !"to_int64", metadata !"to_int64", metadata !"_ZNK11ap_int_baseILi33ELb1ELb1EE8to_int64Ev", metadata !145, i32 1725, metadata !548, i1 false, i1 false, i32 0, i32 0, null, i32 256, i1 false, null, null, i32 0, metadata !157, i32 1725} ; [ DW_TAG_subprogram ]
!548 = metadata !{i32 786453, i32 0, metadata !"", i32 0, i32 0, i64 0, i64 0, i64 0, i32 0, null, metadata !549, i32 0, i32 0} ; [ DW_TAG_subroutine_type ]
!549 = metadata !{metadata !219, metadata !519}
!550 = metadata !{i32 786478, i32 0, metadata !383, metadata !"to_uint64", metadata !"to_uint64", metadata !"_ZNK11ap_int_baseILi33ELb1ELb1EE9to_uint64Ev", metadata !145, i32 1726, metadata !551, i1 false, i1 false, i32 0, i32 0, null, i32 256, i1 false, null, null, i32 0, metadata !157, i32 1726} ; [ DW_TAG_subprogram ]
!551 = metadata !{i32 786453, i32 0, metadata !"", i32 0, i32 0, i64 0, i64 0, i64 0, i32 0, null, metadata !552, i32 0, i32 0} ; [ DW_TAG_subroutine_type ]
!552 = metadata !{metadata !224, metadata !519}
!553 = metadata !{i32 786478, i32 0, metadata !383, metadata !"to_double", metadata !"to_double", metadata !"_ZNK11ap_int_baseILi33ELb1ELb1EE9to_doubleEv", metadata !145, i32 1727, metadata !554, i1 false, i1 false, i32 0, i32 0, null, i32 256, i1 false, null, null, i32 0, metadata !157, i32 1727} ; [ DW_TAG_subprogram ]
!554 = metadata !{i32 786453, i32 0, metadata !"", i32 0, i32 0, i64 0, i64 0, i64 0, i32 0, null, metadata !555, i32 0, i32 0} ; [ DW_TAG_subroutine_type ]
!555 = metadata !{metadata !238, metadata !519}
!556 = metadata !{i32 786478, i32 0, metadata !383, metadata !"length", metadata !"length", metadata !"_ZNK11ap_int_baseILi33ELb1ELb1EE6lengthEv", metadata !145, i32 1741, metadata !536, i1 false, i1 false, i32 0, i32 0, null, i32 256, i1 false, null, null, i32 0, metadata !157, i32 1741} ; [ DW_TAG_subprogram ]
!557 = metadata !{i32 786478, i32 0, metadata !383, metadata !"length", metadata !"length", metadata !"_ZNVK11ap_int_baseILi33ELb1ELb1EE6lengthEv", metadata !145, i32 1742, metadata !558, i1 false, i1 false, i32 0, i32 0, null, i32 256, i1 false, null, null, i32 0, metadata !157, i32 1742} ; [ DW_TAG_subprogram ]
!558 = metadata !{i32 786453, i32 0, metadata !"", i32 0, i32 0, i64 0, i64 0, i64 0, i32 0, null, metadata !559, i32 0, i32 0} ; [ DW_TAG_subroutine_type ]
!559 = metadata !{metadata !161, metadata !560}
!560 = metadata !{i32 786447, i32 0, metadata !"", i32 0, i32 0, i64 64, i64 64, i64 0, i32 64, metadata !413} ; [ DW_TAG_pointer_type ]
!561 = metadata !{i32 786478, i32 0, metadata !383, metadata !"reverse", metadata !"reverse", metadata !"_ZN11ap_int_baseILi33ELb1ELb1EE7reverseEv", metadata !145, i32 1747, metadata !562, i1 false, i1 false, i32 0, i32 0, null, i32 256, i1 false, null, null, i32 0, metadata !157, i32 1747} ; [ DW_TAG_subprogram ]
!562 = metadata !{i32 786453, i32 0, metadata !"", i32 0, i32 0, i64 0, i64 0, i64 0, i32 0, null, metadata !563, i32 0, i32 0} ; [ DW_TAG_subroutine_type ]
!563 = metadata !{metadata !477, metadata !400}
!564 = metadata !{i32 786478, i32 0, metadata !383, metadata !"iszero", metadata !"iszero", metadata !"_ZNK11ap_int_baseILi33ELb1ELb1EE6iszeroEv", metadata !145, i32 1753, metadata !521, i1 false, i1 false, i32 0, i32 0, null, i32 256, i1 false, null, null, i32 0, metadata !157, i32 1753} ; [ DW_TAG_subprogram ]
!565 = metadata !{i32 786478, i32 0, metadata !383, metadata !"is_zero", metadata !"is_zero", metadata !"_ZNK11ap_int_baseILi33ELb1ELb1EE7is_zeroEv", metadata !145, i32 1758, metadata !521, i1 false, i1 false, i32 0, i32 0, null, i32 256, i1 false, null, null, i32 0, metadata !157, i32 1758} ; [ DW_TAG_subprogram ]
!566 = metadata !{i32 786478, i32 0, metadata !383, metadata !"sign", metadata !"sign", metadata !"_ZNK11ap_int_baseILi33ELb1ELb1EE4signEv", metadata !145, i32 1763, metadata !521, i1 false, i1 false, i32 0, i32 0, null, i32 256, i1 false, null, null, i32 0, metadata !157, i32 1763} ; [ DW_TAG_subprogram ]
!567 = metadata !{i32 786478, i32 0, metadata !383, metadata !"clear", metadata !"clear", metadata !"_ZN11ap_int_baseILi33ELb1ELb1EE5clearEi", metadata !145, i32 1771, metadata !431, i1 false, i1 false, i32 0, i32 0, null, i32 256, i1 false, null, null, i32 0, metadata !157, i32 1771} ; [ DW_TAG_subprogram ]
!568 = metadata !{i32 786478, i32 0, metadata !383, metadata !"invert", metadata !"invert", metadata !"_ZN11ap_int_baseILi33ELb1ELb1EE6invertEi", metadata !145, i32 1777, metadata !431, i1 false, i1 false, i32 0, i32 0, null, i32 256, i1 false, null, null, i32 0, metadata !157, i32 1777} ; [ DW_TAG_subprogram ]
!569 = metadata !{i32 786478, i32 0, metadata !383, metadata !"test", metadata !"test", metadata !"_ZNK11ap_int_baseILi33ELb1ELb1EE4testEi", metadata !145, i32 1785, metadata !570, i1 false, i1 false, i32 0, i32 0, null, i32 256, i1 false, null, null, i32 0, metadata !157, i32 1785} ; [ DW_TAG_subprogram ]
!570 = metadata !{i32 786453, i32 0, metadata !"", i32 0, i32 0, i64 0, i64 0, i64 0, i32 0, null, metadata !571, i32 0, i32 0} ; [ DW_TAG_subroutine_type ]
!571 = metadata !{metadata !163, metadata !519, metadata !161}
!572 = metadata !{i32 786478, i32 0, metadata !383, metadata !"set", metadata !"set", metadata !"_ZN11ap_int_baseILi33ELb1ELb1EE3setEi", metadata !145, i32 1791, metadata !431, i1 false, i1 false, i32 0, i32 0, null, i32 256, i1 false, null, null, i32 0, metadata !157, i32 1791} ; [ DW_TAG_subprogram ]
!573 = metadata !{i32 786478, i32 0, metadata !383, metadata !"set", metadata !"set", metadata !"_ZN11ap_int_baseILi33ELb1ELb1EE3setEib", metadata !145, i32 1797, metadata !574, i1 false, i1 false, i32 0, i32 0, null, i32 256, i1 false, null, null, i32 0, metadata !157, i32 1797} ; [ DW_TAG_subprogram ]
!574 = metadata !{i32 786453, i32 0, metadata !"", i32 0, i32 0, i64 0, i64 0, i64 0, i32 0, null, metadata !575, i32 0, i32 0} ; [ DW_TAG_subroutine_type ]
!575 = metadata !{null, metadata !400, metadata !161, metadata !163}
!576 = metadata !{i32 786478, i32 0, metadata !383, metadata !"lrotate", metadata !"lrotate", metadata !"_ZN11ap_int_baseILi33ELb1ELb1EE7lrotateEi", metadata !145, i32 1804, metadata !431, i1 false, i1 false, i32 0, i32 0, null, i32 256, i1 false, null, null, i32 0, metadata !157, i32 1804} ; [ DW_TAG_subprogram ]
!577 = metadata !{i32 786478, i32 0, metadata !383, metadata !"rrotate", metadata !"rrotate", metadata !"_ZN11ap_int_baseILi33ELb1ELb1EE7rrotateEi", metadata !145, i32 1813, metadata !431, i1 false, i1 false, i32 0, i32 0, null, i32 256, i1 false, null, null, i32 0, metadata !157, i32 1813} ; [ DW_TAG_subprogram ]
!578 = metadata !{i32 786478, i32 0, metadata !383, metadata !"set_bit", metadata !"set_bit", metadata !"_ZN11ap_int_baseILi33ELb1ELb1EE7set_bitEib", metadata !145, i32 1821, metadata !574, i1 false, i1 false, i32 0, i32 0, null, i32 256, i1 false, null, null, i32 0, metadata !157, i32 1821} ; [ DW_TAG_subprogram ]
!579 = metadata !{i32 786478, i32 0, metadata !383, metadata !"get_bit", metadata !"get_bit", metadata !"_ZNK11ap_int_baseILi33ELb1ELb1EE7get_bitEi", metadata !145, i32 1826, metadata !570, i1 false, i1 false, i32 0, i32 0, null, i32 256, i1 false, null, null, i32 0, metadata !157, i32 1826} ; [ DW_TAG_subprogram ]
!580 = metadata !{i32 786478, i32 0, metadata !383, metadata !"b_not", metadata !"b_not", metadata !"_ZN11ap_int_baseILi33ELb1ELb1EE5b_notEv", metadata !145, i32 1831, metadata !398, i1 false, i1 false, i32 0, i32 0, null, i32 256, i1 false, null, null, i32 0, metadata !157, i32 1831} ; [ DW_TAG_subprogram ]
!581 = metadata !{i32 786478, i32 0, metadata !383, metadata !"countLeadingZeros", metadata !"countLeadingZeros", metadata !"_ZN11ap_int_baseILi33ELb1ELb1EE17countLeadingZerosEv", metadata !145, i32 1838, metadata !582, i1 false, i1 false, i32 0, i32 0, null, i32 256, i1 false, null, null, i32 0, metadata !157, i32 1838} ; [ DW_TAG_subprogram ]
!582 = metadata !{i32 786453, i32 0, metadata !"", i32 0, i32 0, i64 0, i64 0, i64 0, i32 0, null, metadata !583, i32 0, i32 0} ; [ DW_TAG_subroutine_type ]
!583 = metadata !{metadata !161, metadata !400}
!584 = metadata !{i32 786478, i32 0, metadata !383, metadata !"operator++", metadata !"operator++", metadata !"_ZN11ap_int_baseILi33ELb1ELb1EEppEv", metadata !145, i32 1895, metadata !562, i1 false, i1 false, i32 0, i32 0, null, i32 256, i1 false, null, null, i32 0, metadata !157, i32 1895} ; [ DW_TAG_subprogram ]
!585 = metadata !{i32 786478, i32 0, metadata !383, metadata !"operator--", metadata !"operator--", metadata !"_ZN11ap_int_baseILi33ELb1ELb1EEmmEv", metadata !145, i32 1899, metadata !562, i1 false, i1 false, i32 0, i32 0, null, i32 256, i1 false, null, null, i32 0, metadata !157, i32 1899} ; [ DW_TAG_subprogram ]
!586 = metadata !{i32 786478, i32 0, metadata !383, metadata !"operator++", metadata !"operator++", metadata !"_ZN11ap_int_baseILi33ELb1ELb1EEppEi", metadata !145, i32 1907, metadata !587, i1 false, i1 false, i32 0, i32 0, null, i32 256, i1 false, null, null, i32 0, metadata !157, i32 1907} ; [ DW_TAG_subprogram ]
!587 = metadata !{i32 786453, i32 0, metadata !"", i32 0, i32 0, i64 0, i64 0, i64 0, i32 0, null, metadata !588, i32 0, i32 0} ; [ DW_TAG_subroutine_type ]
!588 = metadata !{metadata !405, metadata !400, metadata !161}
!589 = metadata !{i32 786478, i32 0, metadata !383, metadata !"operator--", metadata !"operator--", metadata !"_ZN11ap_int_baseILi33ELb1ELb1EEmmEi", metadata !145, i32 1912, metadata !587, i1 false, i1 false, i32 0, i32 0, null, i32 256, i1 false, null, null, i32 0, metadata !157, i32 1912} ; [ DW_TAG_subprogram ]
!590 = metadata !{i32 786478, i32 0, metadata !383, metadata !"operator+", metadata !"operator+", metadata !"_ZNK11ap_int_baseILi33ELb1ELb1EEpsEv", metadata !145, i32 1921, metadata !591, i1 false, i1 false, i32 0, i32 0, null, i32 256, i1 false, null, null, i32 0, metadata !157, i32 1921} ; [ DW_TAG_subprogram ]
!591 = metadata !{i32 786453, i32 0, metadata !"", i32 0, i32 0, i64 0, i64 0, i64 0, i32 0, null, metadata !592, i32 0, i32 0} ; [ DW_TAG_subroutine_type ]
!592 = metadata !{metadata !383, metadata !519}
!593 = metadata !{i32 786478, i32 0, metadata !383, metadata !"operator!", metadata !"operator!", metadata !"_ZNK11ap_int_baseILi33ELb1ELb1EEntEv", metadata !145, i32 1927, metadata !521, i1 false, i1 false, i32 0, i32 0, null, i32 256, i1 false, null, null, i32 0, metadata !157, i32 1927} ; [ DW_TAG_subprogram ]
!594 = metadata !{i32 786478, i32 0, metadata !383, metadata !"operator-", metadata !"operator-", metadata !"_ZNK11ap_int_baseILi33ELb1ELb1EEngEv", metadata !145, i32 1932, metadata !595, i1 false, i1 false, i32 0, i32 0, null, i32 256, i1 false, null, null, i32 0, metadata !157, i32 1932} ; [ DW_TAG_subprogram ]
!595 = metadata !{i32 786453, i32 0, metadata !"", i32 0, i32 0, i64 0, i64 0, i64 0, i32 0, null, metadata !596, i32 0, i32 0} ; [ DW_TAG_subroutine_type ]
!596 = metadata !{metadata !597, metadata !519}
!597 = metadata !{i32 786434, null, metadata !"ap_int_base<34, true, true>", metadata !145, i32 651, i32 0, i32 0, i32 0, i32 4, null, null, i32 0} ; [ DW_TAG_class_type ]
!598 = metadata !{i32 786478, i32 0, metadata !383, metadata !"range", metadata !"range", metadata !"_ZN11ap_int_baseILi33ELb1ELb1EE5rangeEii", metadata !145, i32 2062, metadata !599, i1 false, i1 false, i32 0, i32 0, null, i32 256, i1 false, null, null, i32 0, metadata !157, i32 2062} ; [ DW_TAG_subprogram ]
!599 = metadata !{i32 786453, i32 0, metadata !"", i32 0, i32 0, i64 0, i64 0, i64 0, i32 0, null, metadata !600, i32 0, i32 0} ; [ DW_TAG_subroutine_type ]
!600 = metadata !{metadata !601, metadata !400, metadata !161, metadata !161}
!601 = metadata !{i32 786434, null, metadata !"ap_range_ref<33, true>", metadata !145, i32 925, i32 0, i32 0, i32 0, i32 4, null, null, i32 0} ; [ DW_TAG_class_type ]
!602 = metadata !{i32 786478, i32 0, metadata !383, metadata !"operator()", metadata !"operator()", metadata !"_ZN11ap_int_baseILi33ELb1ELb1EEclEii", metadata !145, i32 2068, metadata !599, i1 false, i1 false, i32 0, i32 0, null, i32 256, i1 false, null, null, i32 0, metadata !157, i32 2068} ; [ DW_TAG_subprogram ]
!603 = metadata !{i32 786478, i32 0, metadata !383, metadata !"range", metadata !"range", metadata !"_ZNK11ap_int_baseILi33ELb1ELb1EE5rangeEii", metadata !145, i32 2074, metadata !604, i1 false, i1 false, i32 0, i32 0, null, i32 256, i1 false, null, null, i32 0, metadata !157, i32 2074} ; [ DW_TAG_subprogram ]
!604 = metadata !{i32 786453, i32 0, metadata !"", i32 0, i32 0, i64 0, i64 0, i64 0, i32 0, null, metadata !605, i32 0, i32 0} ; [ DW_TAG_subroutine_type ]
!605 = metadata !{metadata !601, metadata !519, metadata !161, metadata !161}
!606 = metadata !{i32 786478, i32 0, metadata !383, metadata !"operator()", metadata !"operator()", metadata !"_ZNK11ap_int_baseILi33ELb1ELb1EEclEii", metadata !145, i32 2080, metadata !604, i1 false, i1 false, i32 0, i32 0, null, i32 256, i1 false, null, null, i32 0, metadata !157, i32 2080} ; [ DW_TAG_subprogram ]
!607 = metadata !{i32 786478, i32 0, metadata !383, metadata !"operator[]", metadata !"operator[]", metadata !"_ZN11ap_int_baseILi33ELb1ELb1EEixEi", metadata !145, i32 2099, metadata !608, i1 false, i1 false, i32 0, i32 0, null, i32 256, i1 false, null, null, i32 0, metadata !157, i32 2099} ; [ DW_TAG_subprogram ]
!608 = metadata !{i32 786453, i32 0, metadata !"", i32 0, i32 0, i64 0, i64 0, i64 0, i32 0, null, metadata !609, i32 0, i32 0} ; [ DW_TAG_subroutine_type ]
!609 = metadata !{metadata !610, metadata !400, metadata !161}
!610 = metadata !{i32 786434, null, metadata !"ap_bit_ref<33, true>", metadata !145, i32 1249, i64 128, i64 64, i32 0, i32 0, null, metadata !611, i32 0, null, metadata !644} ; [ DW_TAG_class_type ]
!611 = metadata !{metadata !612, metadata !613, metadata !614, metadata !620, metadata !624, metadata !628, metadata !629, metadata !633, metadata !636, metadata !637, metadata !640, metadata !641}
!612 = metadata !{i32 786445, metadata !610, metadata !"d_bv", metadata !145, i32 1250, i64 64, i64 64, i64 0, i32 0, metadata !477} ; [ DW_TAG_member ]
!613 = metadata !{i32 786445, metadata !610, metadata !"d_index", metadata !145, i32 1251, i64 32, i64 32, i64 64, i32 0, metadata !161} ; [ DW_TAG_member ]
!614 = metadata !{i32 786478, i32 0, metadata !610, metadata !"ap_bit_ref", metadata !"ap_bit_ref", metadata !"", metadata !145, i32 1254, metadata !615, i1 false, i1 false, i32 0, i32 0, null, i32 256, i1 false, null, null, i32 0, metadata !157, i32 1254} ; [ DW_TAG_subprogram ]
!615 = metadata !{i32 786453, i32 0, metadata !"", i32 0, i32 0, i64 0, i64 0, i64 0, i32 0, null, metadata !616, i32 0, i32 0} ; [ DW_TAG_subroutine_type ]
!616 = metadata !{null, metadata !617, metadata !618}
!617 = metadata !{i32 786447, i32 0, metadata !"", i32 0, i32 0, i64 64, i64 64, i64 0, i32 64, metadata !610} ; [ DW_TAG_pointer_type ]
!618 = metadata !{i32 786448, null, null, null, i32 0, i64 0, i64 0, i64 0, i32 0, metadata !619} ; [ DW_TAG_reference_type ]
!619 = metadata !{i32 786470, null, metadata !"", null, i32 0, i64 0, i64 0, i64 0, i32 0, metadata !610} ; [ DW_TAG_const_type ]
!620 = metadata !{i32 786478, i32 0, metadata !610, metadata !"ap_bit_ref", metadata !"ap_bit_ref", metadata !"", metadata !145, i32 1257, metadata !621, i1 false, i1 false, i32 0, i32 0, null, i32 256, i1 false, null, null, i32 0, metadata !157, i32 1257} ; [ DW_TAG_subprogram ]
!621 = metadata !{i32 786453, i32 0, metadata !"", i32 0, i32 0, i64 0, i64 0, i64 0, i32 0, null, metadata !622, i32 0, i32 0} ; [ DW_TAG_subroutine_type ]
!622 = metadata !{null, metadata !617, metadata !623, metadata !161}
!623 = metadata !{i32 786447, null, metadata !"", null, i32 0, i64 64, i64 64, i64 0, i32 0, metadata !383} ; [ DW_TAG_pointer_type ]
!624 = metadata !{i32 786478, i32 0, metadata !610, metadata !"operator _Bool", metadata !"operator _Bool", metadata !"_ZNK10ap_bit_refILi33ELb1EEcvbEv", metadata !145, i32 1259, metadata !625, i1 false, i1 false, i32 0, i32 0, null, i32 256, i1 false, null, null, i32 0, metadata !157, i32 1259} ; [ DW_TAG_subprogram ]
!625 = metadata !{i32 786453, i32 0, metadata !"", i32 0, i32 0, i64 0, i64 0, i64 0, i32 0, null, metadata !626, i32 0, i32 0} ; [ DW_TAG_subroutine_type ]
!626 = metadata !{metadata !163, metadata !627}
!627 = metadata !{i32 786447, i32 0, metadata !"", i32 0, i32 0, i64 64, i64 64, i64 0, i32 64, metadata !619} ; [ DW_TAG_pointer_type ]
!628 = metadata !{i32 786478, i32 0, metadata !610, metadata !"to_bool", metadata !"to_bool", metadata !"_ZNK10ap_bit_refILi33ELb1EE7to_boolEv", metadata !145, i32 1260, metadata !625, i1 false, i1 false, i32 0, i32 0, null, i32 256, i1 false, null, null, i32 0, metadata !157, i32 1260} ; [ DW_TAG_subprogram ]
!629 = metadata !{i32 786478, i32 0, metadata !610, metadata !"operator=", metadata !"operator=", metadata !"_ZN10ap_bit_refILi33ELb1EEaSEy", metadata !145, i32 1262, metadata !630, i1 false, i1 false, i32 0, i32 0, null, i32 256, i1 false, null, null, i32 0, metadata !157, i32 1262} ; [ DW_TAG_subprogram ]
!630 = metadata !{i32 786453, i32 0, metadata !"", i32 0, i32 0, i64 0, i64 0, i64 0, i32 0, null, metadata !631, i32 0, i32 0} ; [ DW_TAG_subroutine_type ]
!631 = metadata !{metadata !632, metadata !617, metadata !225}
!632 = metadata !{i32 786448, null, null, null, i32 0, i64 0, i64 0, i64 0, i32 0, metadata !610} ; [ DW_TAG_reference_type ]
!633 = metadata !{i32 786478, i32 0, metadata !610, metadata !"operator=", metadata !"operator=", metadata !"_ZN10ap_bit_refILi33ELb1EEaSERKS0_", metadata !145, i32 1282, metadata !634, i1 false, i1 false, i32 0, i32 0, null, i32 256, i1 false, null, null, i32 0, metadata !157, i32 1282} ; [ DW_TAG_subprogram ]
!634 = metadata !{i32 786453, i32 0, metadata !"", i32 0, i32 0, i64 0, i64 0, i64 0, i32 0, null, metadata !635, i32 0, i32 0} ; [ DW_TAG_subroutine_type ]
!635 = metadata !{metadata !632, metadata !617, metadata !618}
!636 = metadata !{i32 786478, i32 0, metadata !610, metadata !"get", metadata !"get", metadata !"_ZNK10ap_bit_refILi33ELb1EE3getEv", metadata !145, i32 1390, metadata !625, i1 false, i1 false, i32 0, i32 0, null, i32 256, i1 false, null, null, i32 0, metadata !157, i32 1390} ; [ DW_TAG_subprogram ]
!637 = metadata !{i32 786478, i32 0, metadata !610, metadata !"get", metadata !"get", metadata !"_ZN10ap_bit_refILi33ELb1EE3getEv", metadata !145, i32 1394, metadata !638, i1 false, i1 false, i32 0, i32 0, null, i32 256, i1 false, null, null, i32 0, metadata !157, i32 1394} ; [ DW_TAG_subprogram ]
!638 = metadata !{i32 786453, i32 0, metadata !"", i32 0, i32 0, i64 0, i64 0, i64 0, i32 0, null, metadata !639, i32 0, i32 0} ; [ DW_TAG_subroutine_type ]
!639 = metadata !{metadata !163, metadata !617}
!640 = metadata !{i32 786478, i32 0, metadata !610, metadata !"operator~", metadata !"operator~", metadata !"_ZNK10ap_bit_refILi33ELb1EEcoEv", metadata !145, i32 1403, metadata !625, i1 false, i1 false, i32 0, i32 0, null, i32 256, i1 false, null, null, i32 0, metadata !157, i32 1403} ; [ DW_TAG_subprogram ]
!641 = metadata !{i32 786478, i32 0, metadata !610, metadata !"length", metadata !"length", metadata !"_ZNK10ap_bit_refILi33ELb1EE6lengthEv", metadata !145, i32 1408, metadata !642, i1 false, i1 false, i32 0, i32 0, null, i32 256, i1 false, null, null, i32 0, metadata !157, i32 1408} ; [ DW_TAG_subprogram ]
!642 = metadata !{i32 786453, i32 0, metadata !"", i32 0, i32 0, i64 0, i64 0, i64 0, i32 0, null, metadata !643, i32 0, i32 0} ; [ DW_TAG_subroutine_type ]
!643 = metadata !{metadata !161, metadata !627}
!644 = metadata !{metadata !645, metadata !396}
!645 = metadata !{i32 786480, null, metadata !"_AP_W", metadata !161, i64 33, null, i32 0, i32 0} ; [ DW_TAG_template_value_parameter ]
!646 = metadata !{i32 786478, i32 0, metadata !383, metadata !"operator[]", metadata !"operator[]", metadata !"_ZNK11ap_int_baseILi33ELb1ELb1EEixEi", metadata !145, i32 2113, metadata !570, i1 false, i1 false, i32 0, i32 0, null, i32 256, i1 false, null, null, i32 0, metadata !157, i32 2113} ; [ DW_TAG_subprogram ]
!647 = metadata !{i32 786478, i32 0, metadata !383, metadata !"bit", metadata !"bit", metadata !"_ZN11ap_int_baseILi33ELb1ELb1EE3bitEi", metadata !145, i32 2127, metadata !608, i1 false, i1 false, i32 0, i32 0, null, i32 256, i1 false, null, null, i32 0, metadata !157, i32 2127} ; [ DW_TAG_subprogram ]
!648 = metadata !{i32 786478, i32 0, metadata !383, metadata !"bit", metadata !"bit", metadata !"_ZNK11ap_int_baseILi33ELb1ELb1EE3bitEi", metadata !145, i32 2141, metadata !570, i1 false, i1 false, i32 0, i32 0, null, i32 256, i1 false, null, null, i32 0, metadata !157, i32 2141} ; [ DW_TAG_subprogram ]
!649 = metadata !{i32 786478, i32 0, metadata !383, metadata !"and_reduce", metadata !"and_reduce", metadata !"_ZN11ap_int_baseILi33ELb1ELb1EE10and_reduceEv", metadata !145, i32 2321, metadata !650, i1 false, i1 false, i32 0, i32 0, null, i32 256, i1 false, null, null, i32 0, metadata !157, i32 2321} ; [ DW_TAG_subprogram ]
!650 = metadata !{i32 786453, i32 0, metadata !"", i32 0, i32 0, i64 0, i64 0, i64 0, i32 0, null, metadata !651, i32 0, i32 0} ; [ DW_TAG_subroutine_type ]
!651 = metadata !{metadata !163, metadata !400}
!652 = metadata !{i32 786478, i32 0, metadata !383, metadata !"nand_reduce", metadata !"nand_reduce", metadata !"_ZN11ap_int_baseILi33ELb1ELb1EE11nand_reduceEv", metadata !145, i32 2324, metadata !650, i1 false, i1 false, i32 0, i32 0, null, i32 256, i1 false, null, null, i32 0, metadata !157, i32 2324} ; [ DW_TAG_subprogram ]
!653 = metadata !{i32 786478, i32 0, metadata !383, metadata !"or_reduce", metadata !"or_reduce", metadata !"_ZN11ap_int_baseILi33ELb1ELb1EE9or_reduceEv", metadata !145, i32 2327, metadata !650, i1 false, i1 false, i32 0, i32 0, null, i32 256, i1 false, null, null, i32 0, metadata !157, i32 2327} ; [ DW_TAG_subprogram ]
!654 = metadata !{i32 786478, i32 0, metadata !383, metadata !"nor_reduce", metadata !"nor_reduce", metadata !"_ZN11ap_int_baseILi33ELb1ELb1EE10nor_reduceEv", metadata !145, i32 2330, metadata !650, i1 false, i1 false, i32 0, i32 0, null, i32 256, i1 false, null, null, i32 0, metadata !157, i32 2330} ; [ DW_TAG_subprogram ]
!655 = metadata !{i32 786478, i32 0, metadata !383, metadata !"xor_reduce", metadata !"xor_reduce", metadata !"_ZN11ap_int_baseILi33ELb1ELb1EE10xor_reduceEv", metadata !145, i32 2333, metadata !650, i1 false, i1 false, i32 0, i32 0, null, i32 256, i1 false, null, null, i32 0, metadata !157, i32 2333} ; [ DW_TAG_subprogram ]
!656 = metadata !{i32 786478, i32 0, metadata !383, metadata !"xnor_reduce", metadata !"xnor_reduce", metadata !"_ZN11ap_int_baseILi33ELb1ELb1EE11xnor_reduceEv", metadata !145, i32 2336, metadata !650, i1 false, i1 false, i32 0, i32 0, null, i32 256, i1 false, null, null, i32 0, metadata !157, i32 2336} ; [ DW_TAG_subprogram ]
!657 = metadata !{i32 786478, i32 0, metadata !383, metadata !"and_reduce", metadata !"and_reduce", metadata !"_ZNK11ap_int_baseILi33ELb1ELb1EE10and_reduceEv", metadata !145, i32 2340, metadata !521, i1 false, i1 false, i32 0, i32 0, null, i32 256, i1 false, null, null, i32 0, metadata !157, i32 2340} ; [ DW_TAG_subprogram ]
!658 = metadata !{i32 786478, i32 0, metadata !383, metadata !"nand_reduce", metadata !"nand_reduce", metadata !"_ZNK11ap_int_baseILi33ELb1ELb1EE11nand_reduceEv", metadata !145, i32 2343, metadata !521, i1 false, i1 false, i32 0, i32 0, null, i32 256, i1 false, null, null, i32 0, metadata !157, i32 2343} ; [ DW_TAG_subprogram ]
!659 = metadata !{i32 786478, i32 0, metadata !383, metadata !"or_reduce", metadata !"or_reduce", metadata !"_ZNK11ap_int_baseILi33ELb1ELb1EE9or_reduceEv", metadata !145, i32 2346, metadata !521, i1 false, i1 false, i32 0, i32 0, null, i32 256, i1 false, null, null, i32 0, metadata !157, i32 2346} ; [ DW_TAG_subprogram ]
!660 = metadata !{i32 786478, i32 0, metadata !383, metadata !"nor_reduce", metadata !"nor_reduce", metadata !"_ZNK11ap_int_baseILi33ELb1ELb1EE10nor_reduceEv", metadata !145, i32 2349, metadata !521, i1 false, i1 false, i32 0, i32 0, null, i32 256, i1 false, null, null, i32 0, metadata !157, i32 2349} ; [ DW_TAG_subprogram ]
!661 = metadata !{i32 786478, i32 0, metadata !383, metadata !"xor_reduce", metadata !"xor_reduce", metadata !"_ZNK11ap_int_baseILi33ELb1ELb1EE10xor_reduceEv", metadata !145, i32 2352, metadata !521, i1 false, i1 false, i32 0, i32 0, null, i32 256, i1 false, null, null, i32 0, metadata !157, i32 2352} ; [ DW_TAG_subprogram ]
!662 = metadata !{i32 786478, i32 0, metadata !383, metadata !"xnor_reduce", metadata !"xnor_reduce", metadata !"_ZNK11ap_int_baseILi33ELb1ELb1EE11xnor_reduceEv", metadata !145, i32 2355, metadata !521, i1 false, i1 false, i32 0, i32 0, null, i32 256, i1 false, null, null, i32 0, metadata !157, i32 2355} ; [ DW_TAG_subprogram ]
!663 = metadata !{i32 786478, i32 0, metadata !383, metadata !"to_string", metadata !"to_string", metadata !"_ZNK11ap_int_baseILi33ELb1ELb1EE9to_stringEPci8BaseModeb", metadata !145, i32 2362, metadata !664, i1 false, i1 false, i32 0, i32 0, null, i32 256, i1 false, null, null, i32 0, metadata !157, i32 2362} ; [ DW_TAG_subprogram ]
!664 = metadata !{i32 786453, i32 0, metadata !"", i32 0, i32 0, i64 0, i64 0, i64 0, i32 0, null, metadata !665, i32 0, i32 0} ; [ DW_TAG_subroutine_type ]
!665 = metadata !{null, metadata !519, metadata !666, metadata !161, metadata !667, metadata !163}
!666 = metadata !{i32 786447, null, metadata !"", null, i32 0, i64 64, i64 64, i64 0, i32 0, metadata !244} ; [ DW_TAG_pointer_type ]
!667 = metadata !{i32 786436, null, metadata !"BaseMode", metadata !145, i32 603, i64 5, i64 8, i32 0, i32 0, null, metadata !668, i32 0, i32 0} ; [ DW_TAG_enumeration_type ]
!668 = metadata !{metadata !669, metadata !670, metadata !671, metadata !672}
!669 = metadata !{i32 786472, metadata !"SC_BIN", i64 2} ; [ DW_TAG_enumerator ]
!670 = metadata !{i32 786472, metadata !"SC_OCT", i64 8} ; [ DW_TAG_enumerator ]
!671 = metadata !{i32 786472, metadata !"SC_DEC", i64 10} ; [ DW_TAG_enumerator ]
!672 = metadata !{i32 786472, metadata !"SC_HEX", i64 16} ; [ DW_TAG_enumerator ]
!673 = metadata !{i32 786478, i32 0, metadata !383, metadata !"to_string", metadata !"to_string", metadata !"_ZNK11ap_int_baseILi33ELb1ELb1EE9to_stringE8BaseModeb", metadata !145, i32 2389, metadata !674, i1 false, i1 false, i32 0, i32 0, null, i32 256, i1 false, null, null, i32 0, metadata !157, i32 2389} ; [ DW_TAG_subprogram ]
!674 = metadata !{i32 786453, i32 0, metadata !"", i32 0, i32 0, i64 0, i64 0, i64 0, i32 0, null, metadata !675, i32 0, i32 0} ; [ DW_TAG_subroutine_type ]
!675 = metadata !{metadata !666, metadata !519, metadata !667, metadata !163}
!676 = metadata !{i32 786478, i32 0, metadata !383, metadata !"to_string", metadata !"to_string", metadata !"_ZNK11ap_int_baseILi33ELb1ELb1EE9to_stringEab", metadata !145, i32 2393, metadata !677, i1 false, i1 false, i32 0, i32 0, null, i32 256, i1 false, null, null, i32 0, metadata !157, i32 2393} ; [ DW_TAG_subprogram ]
!677 = metadata !{i32 786453, i32 0, metadata !"", i32 0, i32 0, i64 0, i64 0, i64 0, i32 0, null, metadata !678, i32 0, i32 0} ; [ DW_TAG_subroutine_type ]
!678 = metadata !{metadata !666, metadata !519, metadata !188, metadata !163}
!679 = metadata !{i32 786478, i32 0, metadata !383, metadata !"~ap_int_base", metadata !"~ap_int_base", metadata !"", metadata !145, i32 1453, metadata !398, i1 false, i1 false, i32 0, i32 0, null, i32 320, i1 false, null, null, i32 0, metadata !157, i32 1453} ; [ DW_TAG_subprogram ]
!680 = metadata !{metadata !645, metadata !396, metadata !681}
!681 = metadata !{i32 786480, null, metadata !"_AP_C", metadata !163, i64 1, null, i32 0, i32 0} ; [ DW_TAG_template_value_parameter ]
!682 = metadata !{i32 786478, i32 0, metadata !144, metadata !"range", metadata !"range", metadata !"_ZN11ap_int_baseILi32ELb0ELb1EE5rangeEii", metadata !145, i32 2062, metadata !683, i1 false, i1 false, i32 0, i32 0, null, i32 256, i1 false, null, null, i32 0, metadata !157, i32 2062} ; [ DW_TAG_subprogram ]
!683 = metadata !{i32 786453, i32 0, metadata !"", i32 0, i32 0, i64 0, i64 0, i64 0, i32 0, null, metadata !684, i32 0, i32 0} ; [ DW_TAG_subroutine_type ]
!684 = metadata !{metadata !685, metadata !167, metadata !161, metadata !161}
!685 = metadata !{i32 786434, null, metadata !"ap_range_ref<32, false>", metadata !145, i32 925, i64 128, i64 64, i32 0, i32 0, null, metadata !686, i32 0, null, metadata !742} ; [ DW_TAG_class_type ]
!686 = metadata !{metadata !687, metadata !688, metadata !689, metadata !690, metadata !696, metadata !700, metadata !704, metadata !707, metadata !711, metadata !714, metadata !718, metadata !721, metadata !722, metadata !725, metadata !728, metadata !731, metadata !734, metadata !737, metadata !740, metadata !741}
!687 = metadata !{i32 786445, metadata !685, metadata !"d_bv", metadata !145, i32 926, i64 64, i64 64, i64 0, i32 0, metadata !262} ; [ DW_TAG_member ]
!688 = metadata !{i32 786445, metadata !685, metadata !"l_index", metadata !145, i32 927, i64 32, i64 32, i64 64, i32 0, metadata !161} ; [ DW_TAG_member ]
!689 = metadata !{i32 786445, metadata !685, metadata !"h_index", metadata !145, i32 928, i64 32, i64 32, i64 96, i32 0, metadata !161} ; [ DW_TAG_member ]
!690 = metadata !{i32 786478, i32 0, metadata !685, metadata !"ap_range_ref", metadata !"ap_range_ref", metadata !"", metadata !145, i32 931, metadata !691, i1 false, i1 false, i32 0, i32 0, null, i32 256, i1 false, null, null, i32 0, metadata !157, i32 931} ; [ DW_TAG_subprogram ]
!691 = metadata !{i32 786453, i32 0, metadata !"", i32 0, i32 0, i64 0, i64 0, i64 0, i32 0, null, metadata !692, i32 0, i32 0} ; [ DW_TAG_subroutine_type ]
!692 = metadata !{null, metadata !693, metadata !694}
!693 = metadata !{i32 786447, i32 0, metadata !"", i32 0, i32 0, i64 64, i64 64, i64 0, i32 64, metadata !685} ; [ DW_TAG_pointer_type ]
!694 = metadata !{i32 786448, null, null, null, i32 0, i64 0, i64 0, i64 0, i32 0, metadata !695} ; [ DW_TAG_reference_type ]
!695 = metadata !{i32 786470, null, metadata !"", null, i32 0, i64 0, i64 0, i64 0, i32 0, metadata !685} ; [ DW_TAG_const_type ]
!696 = metadata !{i32 786478, i32 0, metadata !685, metadata !"ap_range_ref", metadata !"ap_range_ref", metadata !"", metadata !145, i32 934, metadata !697, i1 false, i1 false, i32 0, i32 0, null, i32 256, i1 false, null, null, i32 0, metadata !157, i32 934} ; [ DW_TAG_subprogram ]
!697 = metadata !{i32 786453, i32 0, metadata !"", i32 0, i32 0, i64 0, i64 0, i64 0, i32 0, null, metadata !698, i32 0, i32 0} ; [ DW_TAG_subroutine_type ]
!698 = metadata !{null, metadata !693, metadata !699, metadata !161, metadata !161}
!699 = metadata !{i32 786447, null, metadata !"", null, i32 0, i64 64, i64 64, i64 0, i32 0, metadata !144} ; [ DW_TAG_pointer_type ]
!700 = metadata !{i32 786478, i32 0, metadata !685, metadata !"operator ap_int_base", metadata !"operator ap_int_base", metadata !"_ZNK12ap_range_refILi32ELb0EEcv11ap_int_baseILi32ELb0ELb1EEEv", metadata !145, i32 939, metadata !701, i1 false, i1 false, i32 0, i32 0, null, i32 256, i1 false, null, null, i32 0, metadata !157, i32 939} ; [ DW_TAG_subprogram ]
!701 = metadata !{i32 786453, i32 0, metadata !"", i32 0, i32 0, i64 0, i64 0, i64 0, i32 0, null, metadata !702, i32 0, i32 0} ; [ DW_TAG_subroutine_type ]
!702 = metadata !{metadata !144, metadata !703}
!703 = metadata !{i32 786447, i32 0, metadata !"", i32 0, i32 0, i64 64, i64 64, i64 0, i32 64, metadata !695} ; [ DW_TAG_pointer_type ]
!704 = metadata !{i32 786478, i32 0, metadata !685, metadata !"operator unsigned long long", metadata !"operator unsigned long long", metadata !"_ZNK12ap_range_refILi32ELb0EEcvyEv", metadata !145, i32 945, metadata !705, i1 false, i1 false, i32 0, i32 0, null, i32 256, i1 false, null, null, i32 0, metadata !157, i32 945} ; [ DW_TAG_subprogram ]
!705 = metadata !{i32 786453, i32 0, metadata !"", i32 0, i32 0, i64 0, i64 0, i64 0, i32 0, null, metadata !706, i32 0, i32 0} ; [ DW_TAG_subroutine_type ]
!706 = metadata !{metadata !225, metadata !703}
!707 = metadata !{i32 786478, i32 0, metadata !685, metadata !"operator=", metadata !"operator=", metadata !"_ZN12ap_range_refILi32ELb0EEaSEy", metadata !145, i32 949, metadata !708, i1 false, i1 false, i32 0, i32 0, null, i32 256, i1 false, null, null, i32 0, metadata !157, i32 949} ; [ DW_TAG_subprogram ]
!708 = metadata !{i32 786453, i32 0, metadata !"", i32 0, i32 0, i64 0, i64 0, i64 0, i32 0, null, metadata !709, i32 0, i32 0} ; [ DW_TAG_subroutine_type ]
!709 = metadata !{metadata !710, metadata !693, metadata !225}
!710 = metadata !{i32 786448, null, null, null, i32 0, i64 0, i64 0, i64 0, i32 0, metadata !685} ; [ DW_TAG_reference_type ]
!711 = metadata !{i32 786478, i32 0, metadata !685, metadata !"operator=", metadata !"operator=", metadata !"_ZN12ap_range_refILi32ELb0EEaSERKS0_", metadata !145, i32 967, metadata !712, i1 false, i1 false, i32 0, i32 0, null, i32 256, i1 false, null, null, i32 0, metadata !157, i32 967} ; [ DW_TAG_subprogram ]
!712 = metadata !{i32 786453, i32 0, metadata !"", i32 0, i32 0, i64 0, i64 0, i64 0, i32 0, null, metadata !713, i32 0, i32 0} ; [ DW_TAG_subroutine_type ]
!713 = metadata !{metadata !710, metadata !693, metadata !694}
!714 = metadata !{i32 786478, i32 0, metadata !685, metadata !"operator,", metadata !"operator,", metadata !"_ZN12ap_range_refILi32ELb0EEcmER11ap_int_baseILi32ELb0ELb1EE", metadata !145, i32 1022, metadata !715, i1 false, i1 false, i32 0, i32 0, null, i32 256, i1 false, null, null, i32 0, metadata !157, i32 1022} ; [ DW_TAG_subprogram ]
!715 = metadata !{i32 786453, i32 0, metadata !"", i32 0, i32 0, i64 0, i64 0, i64 0, i32 0, null, metadata !716, i32 0, i32 0} ; [ DW_TAG_subroutine_type ]
!716 = metadata !{metadata !717, metadata !693, metadata !262}
!717 = metadata !{i32 786434, null, metadata !"ap_concat_ref<32, ap_range_ref<32, false>, 32, ap_int_base<32, false, true> >", metadata !145, i32 688, i32 0, i32 0, i32 0, i32 4, null, null, i32 0} ; [ DW_TAG_class_type ]
!718 = metadata !{i32 786478, i32 0, metadata !685, metadata !"length", metadata !"length", metadata !"_ZNK12ap_range_refILi32ELb0EE6lengthEv", metadata !145, i32 1187, metadata !719, i1 false, i1 false, i32 0, i32 0, null, i32 256, i1 false, null, null, i32 0, metadata !157, i32 1187} ; [ DW_TAG_subprogram ]
!719 = metadata !{i32 786453, i32 0, metadata !"", i32 0, i32 0, i64 0, i64 0, i64 0, i32 0, null, metadata !720, i32 0, i32 0} ; [ DW_TAG_subroutine_type ]
!720 = metadata !{metadata !161, metadata !703}
!721 = metadata !{i32 786478, i32 0, metadata !685, metadata !"to_int", metadata !"to_int", metadata !"_ZNK12ap_range_refILi32ELb0EE6to_intEv", metadata !145, i32 1191, metadata !719, i1 false, i1 false, i32 0, i32 0, null, i32 256, i1 false, null, null, i32 0, metadata !157, i32 1191} ; [ DW_TAG_subprogram ]
!722 = metadata !{i32 786478, i32 0, metadata !685, metadata !"to_uint", metadata !"to_uint", metadata !"_ZNK12ap_range_refILi32ELb0EE7to_uintEv", metadata !145, i32 1194, metadata !723, i1 false, i1 false, i32 0, i32 0, null, i32 256, i1 false, null, null, i32 0, metadata !157, i32 1194} ; [ DW_TAG_subprogram ]
!723 = metadata !{i32 786453, i32 0, metadata !"", i32 0, i32 0, i64 0, i64 0, i64 0, i32 0, null, metadata !724, i32 0, i32 0} ; [ DW_TAG_subroutine_type ]
!724 = metadata !{metadata !207, metadata !703}
!725 = metadata !{i32 786478, i32 0, metadata !685, metadata !"to_long", metadata !"to_long", metadata !"_ZNK12ap_range_refILi32ELb0EE7to_longEv", metadata !145, i32 1197, metadata !726, i1 false, i1 false, i32 0, i32 0, null, i32 256, i1 false, null, null, i32 0, metadata !157, i32 1197} ; [ DW_TAG_subprogram ]
!726 = metadata !{i32 786453, i32 0, metadata !"", i32 0, i32 0, i64 0, i64 0, i64 0, i32 0, null, metadata !727, i32 0, i32 0} ; [ DW_TAG_subroutine_type ]
!727 = metadata !{metadata !211, metadata !703}
!728 = metadata !{i32 786478, i32 0, metadata !685, metadata !"to_ulong", metadata !"to_ulong", metadata !"_ZNK12ap_range_refILi32ELb0EE8to_ulongEv", metadata !145, i32 1200, metadata !729, i1 false, i1 false, i32 0, i32 0, null, i32 256, i1 false, null, null, i32 0, metadata !157, i32 1200} ; [ DW_TAG_subprogram ]
!729 = metadata !{i32 786453, i32 0, metadata !"", i32 0, i32 0, i64 0, i64 0, i64 0, i32 0, null, metadata !730, i32 0, i32 0} ; [ DW_TAG_subroutine_type ]
!730 = metadata !{metadata !215, metadata !703}
!731 = metadata !{i32 786478, i32 0, metadata !685, metadata !"to_int64", metadata !"to_int64", metadata !"_ZNK12ap_range_refILi32ELb0EE8to_int64Ev", metadata !145, i32 1203, metadata !732, i1 false, i1 false, i32 0, i32 0, null, i32 256, i1 false, null, null, i32 0, metadata !157, i32 1203} ; [ DW_TAG_subprogram ]
!732 = metadata !{i32 786453, i32 0, metadata !"", i32 0, i32 0, i64 0, i64 0, i64 0, i32 0, null, metadata !733, i32 0, i32 0} ; [ DW_TAG_subroutine_type ]
!733 = metadata !{metadata !219, metadata !703}
!734 = metadata !{i32 786478, i32 0, metadata !685, metadata !"to_uint64", metadata !"to_uint64", metadata !"_ZNK12ap_range_refILi32ELb0EE9to_uint64Ev", metadata !145, i32 1206, metadata !735, i1 false, i1 false, i32 0, i32 0, null, i32 256, i1 false, null, null, i32 0, metadata !157, i32 1206} ; [ DW_TAG_subprogram ]
!735 = metadata !{i32 786453, i32 0, metadata !"", i32 0, i32 0, i64 0, i64 0, i64 0, i32 0, null, metadata !736, i32 0, i32 0} ; [ DW_TAG_subroutine_type ]
!736 = metadata !{metadata !224, metadata !703}
!737 = metadata !{i32 786478, i32 0, metadata !685, metadata !"and_reduce", metadata !"and_reduce", metadata !"_ZNK12ap_range_refILi32ELb0EE10and_reduceEv", metadata !145, i32 1209, metadata !738, i1 false, i1 false, i32 0, i32 0, null, i32 256, i1 false, null, null, i32 0, metadata !157, i32 1209} ; [ DW_TAG_subprogram ]
!738 = metadata !{i32 786453, i32 0, metadata !"", i32 0, i32 0, i64 0, i64 0, i64 0, i32 0, null, metadata !739, i32 0, i32 0} ; [ DW_TAG_subroutine_type ]
!739 = metadata !{metadata !163, metadata !703}
!740 = metadata !{i32 786478, i32 0, metadata !685, metadata !"or_reduce", metadata !"or_reduce", metadata !"_ZNK12ap_range_refILi32ELb0EE9or_reduceEv", metadata !145, i32 1220, metadata !738, i1 false, i1 false, i32 0, i32 0, null, i32 256, i1 false, null, null, i32 0, metadata !157, i32 1220} ; [ DW_TAG_subprogram ]
!741 = metadata !{i32 786478, i32 0, metadata !685, metadata !"xor_reduce", metadata !"xor_reduce", metadata !"_ZNK12ap_range_refILi32ELb0EE10xor_reduceEv", metadata !145, i32 1231, metadata !738, i1 false, i1 false, i32 0, i32 0, null, i32 256, i1 false, null, null, i32 0, metadata !157, i32 1231} ; [ DW_TAG_subprogram ]
!742 = metadata !{metadata !743, metadata !162}
!743 = metadata !{i32 786480, null, metadata !"_AP_W", metadata !161, i64 32, null, i32 0, i32 0} ; [ DW_TAG_template_value_parameter ]
!744 = metadata !{i32 786478, i32 0, metadata !144, metadata !"operator()", metadata !"operator()", metadata !"_ZN11ap_int_baseILi32ELb0ELb1EEclEii", metadata !145, i32 2068, metadata !683, i1 false, i1 false, i32 0, i32 0, null, i32 256, i1 false, null, null, i32 0, metadata !157, i32 2068} ; [ DW_TAG_subprogram ]
!745 = metadata !{i32 786478, i32 0, metadata !144, metadata !"range", metadata !"range", metadata !"_ZNK11ap_int_baseILi32ELb0ELb1EE5rangeEii", metadata !145, i32 2074, metadata !746, i1 false, i1 false, i32 0, i32 0, null, i32 256, i1 false, null, null, i32 0, metadata !157, i32 2074} ; [ DW_TAG_subprogram ]
!746 = metadata !{i32 786453, i32 0, metadata !"", i32 0, i32 0, i64 0, i64 0, i64 0, i32 0, null, metadata !747, i32 0, i32 0} ; [ DW_TAG_subroutine_type ]
!747 = metadata !{metadata !685, metadata !305, metadata !161, metadata !161}
!748 = metadata !{i32 786478, i32 0, metadata !144, metadata !"operator()", metadata !"operator()", metadata !"_ZNK11ap_int_baseILi32ELb0ELb1EEclEii", metadata !145, i32 2080, metadata !746, i1 false, i1 false, i32 0, i32 0, null, i32 256, i1 false, null, null, i32 0, metadata !157, i32 2080} ; [ DW_TAG_subprogram ]
!749 = metadata !{i32 786478, i32 0, metadata !144, metadata !"operator[]", metadata !"operator[]", metadata !"_ZN11ap_int_baseILi32ELb0ELb1EEixEi", metadata !145, i32 2099, metadata !750, i1 false, i1 false, i32 0, i32 0, null, i32 256, i1 false, null, null, i32 0, metadata !157, i32 2099} ; [ DW_TAG_subprogram ]
!750 = metadata !{i32 786453, i32 0, metadata !"", i32 0, i32 0, i64 0, i64 0, i64 0, i32 0, null, metadata !751, i32 0, i32 0} ; [ DW_TAG_subroutine_type ]
!751 = metadata !{metadata !752, metadata !167, metadata !161}
!752 = metadata !{i32 786434, null, metadata !"ap_bit_ref<32, false>", metadata !145, i32 1249, i32 0, i32 0, i32 0, i32 4, null, null, i32 0} ; [ DW_TAG_class_type ]
!753 = metadata !{i32 786478, i32 0, metadata !144, metadata !"operator[]", metadata !"operator[]", metadata !"_ZNK11ap_int_baseILi32ELb0ELb1EEixEi", metadata !145, i32 2113, metadata !356, i1 false, i1 false, i32 0, i32 0, null, i32 256, i1 false, null, null, i32 0, metadata !157, i32 2113} ; [ DW_TAG_subprogram ]
!754 = metadata !{i32 786478, i32 0, metadata !144, metadata !"bit", metadata !"bit", metadata !"_ZN11ap_int_baseILi32ELb0ELb1EE3bitEi", metadata !145, i32 2127, metadata !750, i1 false, i1 false, i32 0, i32 0, null, i32 256, i1 false, null, null, i32 0, metadata !157, i32 2127} ; [ DW_TAG_subprogram ]
!755 = metadata !{i32 786478, i32 0, metadata !144, metadata !"bit", metadata !"bit", metadata !"_ZNK11ap_int_baseILi32ELb0ELb1EE3bitEi", metadata !145, i32 2141, metadata !356, i1 false, i1 false, i32 0, i32 0, null, i32 256, i1 false, null, null, i32 0, metadata !157, i32 2141} ; [ DW_TAG_subprogram ]
!756 = metadata !{i32 786478, i32 0, metadata !144, metadata !"and_reduce", metadata !"and_reduce", metadata !"_ZN11ap_int_baseILi32ELb0ELb1EE10and_reduceEv", metadata !145, i32 2321, metadata !757, i1 false, i1 false, i32 0, i32 0, null, i32 256, i1 false, null, null, i32 0, metadata !157, i32 2321} ; [ DW_TAG_subprogram ]
!757 = metadata !{i32 786453, i32 0, metadata !"", i32 0, i32 0, i64 0, i64 0, i64 0, i32 0, null, metadata !758, i32 0, i32 0} ; [ DW_TAG_subroutine_type ]
!758 = metadata !{metadata !163, metadata !167}
!759 = metadata !{i32 786478, i32 0, metadata !144, metadata !"nand_reduce", metadata !"nand_reduce", metadata !"_ZN11ap_int_baseILi32ELb0ELb1EE11nand_reduceEv", metadata !145, i32 2324, metadata !757, i1 false, i1 false, i32 0, i32 0, null, i32 256, i1 false, null, null, i32 0, metadata !157, i32 2324} ; [ DW_TAG_subprogram ]
!760 = metadata !{i32 786478, i32 0, metadata !144, metadata !"or_reduce", metadata !"or_reduce", metadata !"_ZN11ap_int_baseILi32ELb0ELb1EE9or_reduceEv", metadata !145, i32 2327, metadata !757, i1 false, i1 false, i32 0, i32 0, null, i32 256, i1 false, null, null, i32 0, metadata !157, i32 2327} ; [ DW_TAG_subprogram ]
!761 = metadata !{i32 786478, i32 0, metadata !144, metadata !"nor_reduce", metadata !"nor_reduce", metadata !"_ZN11ap_int_baseILi32ELb0ELb1EE10nor_reduceEv", metadata !145, i32 2330, metadata !757, i1 false, i1 false, i32 0, i32 0, null, i32 256, i1 false, null, null, i32 0, metadata !157, i32 2330} ; [ DW_TAG_subprogram ]
!762 = metadata !{i32 786478, i32 0, metadata !144, metadata !"xor_reduce", metadata !"xor_reduce", metadata !"_ZN11ap_int_baseILi32ELb0ELb1EE10xor_reduceEv", metadata !145, i32 2333, metadata !757, i1 false, i1 false, i32 0, i32 0, null, i32 256, i1 false, null, null, i32 0, metadata !157, i32 2333} ; [ DW_TAG_subprogram ]
!763 = metadata !{i32 786478, i32 0, metadata !144, metadata !"xnor_reduce", metadata !"xnor_reduce", metadata !"_ZN11ap_int_baseILi32ELb0ELb1EE11xnor_reduceEv", metadata !145, i32 2336, metadata !757, i1 false, i1 false, i32 0, i32 0, null, i32 256, i1 false, null, null, i32 0, metadata !157, i32 2336} ; [ DW_TAG_subprogram ]
!764 = metadata !{i32 786478, i32 0, metadata !144, metadata !"and_reduce", metadata !"and_reduce", metadata !"_ZNK11ap_int_baseILi32ELb0ELb1EE10and_reduceEv", metadata !145, i32 2340, metadata !307, i1 false, i1 false, i32 0, i32 0, null, i32 256, i1 false, null, null, i32 0, metadata !157, i32 2340} ; [ DW_TAG_subprogram ]
!765 = metadata !{i32 786478, i32 0, metadata !144, metadata !"nand_reduce", metadata !"nand_reduce", metadata !"_ZNK11ap_int_baseILi32ELb0ELb1EE11nand_reduceEv", metadata !145, i32 2343, metadata !307, i1 false, i1 false, i32 0, i32 0, null, i32 256, i1 false, null, null, i32 0, metadata !157, i32 2343} ; [ DW_TAG_subprogram ]
!766 = metadata !{i32 786478, i32 0, metadata !144, metadata !"or_reduce", metadata !"or_reduce", metadata !"_ZNK11ap_int_baseILi32ELb0ELb1EE9or_reduceEv", metadata !145, i32 2346, metadata !307, i1 false, i1 false, i32 0, i32 0, null, i32 256, i1 false, null, null, i32 0, metadata !157, i32 2346} ; [ DW_TAG_subprogram ]
!767 = metadata !{i32 786478, i32 0, metadata !144, metadata !"nor_reduce", metadata !"nor_reduce", metadata !"_ZNK11ap_int_baseILi32ELb0ELb1EE10nor_reduceEv", metadata !145, i32 2349, metadata !307, i1 false, i1 false, i32 0, i32 0, null, i32 256, i1 false, null, null, i32 0, metadata !157, i32 2349} ; [ DW_TAG_subprogram ]
!768 = metadata !{i32 786478, i32 0, metadata !144, metadata !"xor_reduce", metadata !"xor_reduce", metadata !"_ZNK11ap_int_baseILi32ELb0ELb1EE10xor_reduceEv", metadata !145, i32 2352, metadata !307, i1 false, i1 false, i32 0, i32 0, null, i32 256, i1 false, null, null, i32 0, metadata !157, i32 2352} ; [ DW_TAG_subprogram ]
!769 = metadata !{i32 786478, i32 0, metadata !144, metadata !"xnor_reduce", metadata !"xnor_reduce", metadata !"_ZNK11ap_int_baseILi32ELb0ELb1EE11xnor_reduceEv", metadata !145, i32 2355, metadata !307, i1 false, i1 false, i32 0, i32 0, null, i32 256, i1 false, null, null, i32 0, metadata !157, i32 2355} ; [ DW_TAG_subprogram ]
!770 = metadata !{i32 786478, i32 0, metadata !144, metadata !"to_string", metadata !"to_string", metadata !"_ZNK11ap_int_baseILi32ELb0ELb1EE9to_stringEPci8BaseModeb", metadata !145, i32 2362, metadata !771, i1 false, i1 false, i32 0, i32 0, null, i32 256, i1 false, null, null, i32 0, metadata !157, i32 2362} ; [ DW_TAG_subprogram ]
!771 = metadata !{i32 786453, i32 0, metadata !"", i32 0, i32 0, i64 0, i64 0, i64 0, i32 0, null, metadata !772, i32 0, i32 0} ; [ DW_TAG_subroutine_type ]
!772 = metadata !{null, metadata !305, metadata !666, metadata !161, metadata !667, metadata !163}
!773 = metadata !{i32 786478, i32 0, metadata !144, metadata !"to_string", metadata !"to_string", metadata !"_ZNK11ap_int_baseILi32ELb0ELb1EE9to_stringE8BaseModeb", metadata !145, i32 2389, metadata !774, i1 false, i1 false, i32 0, i32 0, null, i32 256, i1 false, null, null, i32 0, metadata !157, i32 2389} ; [ DW_TAG_subprogram ]
!774 = metadata !{i32 786453, i32 0, metadata !"", i32 0, i32 0, i64 0, i64 0, i64 0, i32 0, null, metadata !775, i32 0, i32 0} ; [ DW_TAG_subroutine_type ]
!775 = metadata !{metadata !666, metadata !305, metadata !667, metadata !163}
!776 = metadata !{i32 786478, i32 0, metadata !144, metadata !"to_string", metadata !"to_string", metadata !"_ZNK11ap_int_baseILi32ELb0ELb1EE9to_stringEab", metadata !145, i32 2393, metadata !777, i1 false, i1 false, i32 0, i32 0, null, i32 256, i1 false, null, null, i32 0, metadata !157, i32 2393} ; [ DW_TAG_subprogram ]
!777 = metadata !{i32 786453, i32 0, metadata !"", i32 0, i32 0, i64 0, i64 0, i64 0, i32 0, null, metadata !778, i32 0, i32 0} ; [ DW_TAG_subroutine_type ]
!778 = metadata !{metadata !666, metadata !305, metadata !188, metadata !163}
!779 = metadata !{metadata !743, metadata !162, metadata !681}
!780 = metadata !{i32 786478, i32 0, metadata !140, metadata !"ap_uint", metadata !"ap_uint", metadata !"", metadata !141, i32 186, metadata !781, i1 false, i1 false, i32 0, i32 0, null, i32 256, i1 false, null, null, i32 0, metadata !157, i32 186} ; [ DW_TAG_subprogram ]
!781 = metadata !{i32 786453, i32 0, metadata !"", i32 0, i32 0, i64 0, i64 0, i64 0, i32 0, null, metadata !782, i32 0, i32 0} ; [ DW_TAG_subroutine_type ]
!782 = metadata !{null, metadata !783}
!783 = metadata !{i32 786447, i32 0, metadata !"", i32 0, i32 0, i64 64, i64 64, i64 0, i32 64, metadata !140} ; [ DW_TAG_pointer_type ]
!784 = metadata !{i32 786478, i32 0, metadata !140, metadata !"ap_uint<64, false>", metadata !"ap_uint<64, false>", metadata !"", metadata !141, i32 200, metadata !785, i1 false, i1 false, i32 0, i32 0, null, i32 256, i1 false, null, metadata !815, i32 0, metadata !157, i32 200} ; [ DW_TAG_subprogram ]
!785 = metadata !{i32 786453, i32 0, metadata !"", i32 0, i32 0, i64 0, i64 0, i64 0, i32 0, null, metadata !786, i32 0, i32 0} ; [ DW_TAG_subroutine_type ]
!786 = metadata !{null, metadata !783, metadata !787}
!787 = metadata !{i32 786448, null, null, null, i32 0, i64 0, i64 0, i64 0, i32 0, metadata !788} ; [ DW_TAG_reference_type ]
!788 = metadata !{i32 786470, null, metadata !"", null, i32 0, i64 0, i64 0, i64 0, i32 0, metadata !789} ; [ DW_TAG_const_type ]
!789 = metadata !{i32 786434, null, metadata !"ap_range_ref<64, false>", metadata !145, i32 925, i64 128, i64 64, i32 0, i32 0, null, metadata !790, i32 0, null, metadata !1339} ; [ DW_TAG_class_type ]
!790 = metadata !{metadata !791, metadata !1284, metadata !1285, metadata !1286, metadata !1290, metadata !1294, metadata !1298, metadata !1301, metadata !1305, metadata !1308, metadata !1312, metadata !1315, metadata !1316, metadata !1319, metadata !1322, metadata !1325, metadata !1328, metadata !1331, metadata !1334, metadata !1335, metadata !1336}
!791 = metadata !{i32 786445, metadata !789, metadata !"d_bv", metadata !145, i32 926, i64 64, i64 64, i64 0, i32 0, metadata !792} ; [ DW_TAG_member ]
!792 = metadata !{i32 786448, null, null, null, i32 0, i64 0, i64 0, i64 0, i32 0, metadata !793} ; [ DW_TAG_reference_type ]
!793 = metadata !{i32 786434, null, metadata !"ap_int_base<64, false, true>", metadata !145, i32 1453, i64 64, i64 64, i32 0, i32 0, null, metadata !794, i32 0, null, metadata !1283} ; [ DW_TAG_class_type ]
!794 = metadata !{metadata !795, metadata !806, metadata !810, metadata !817, metadata !823, metadata !826, metadata !829, metadata !832, metadata !835, metadata !838, metadata !841, metadata !844, metadata !847, metadata !850, metadata !853, metadata !856, metadata !859, metadata !862, metadata !865, metadata !868, metadata !871, metadata !875, metadata !878, metadata !881, metadata !882, metadata !885, metadata !888, metadata !891, metadata !894, metadata !897, metadata !900, metadata !903, metadata !906, metadata !909, metadata !912, metadata !915, metadata !918, metadata !927, metadata !930, metadata !933, metadata !936, metadata !939, metadata !942, metadata !945, metadata !948, metadata !951, metadata !954, metadata !957, metadata !960, metadata !963, metadata !964, metadata !968, metadata !971, metadata !972, metadata !973, metadata !974, metadata !975, metadata !976, metadata !979, metadata !980, metadata !983, metadata !984, metadata !985, metadata !986, metadata !987, metadata !988, metadata !991, metadata !992, metadata !993, metadata !996, metadata !997, metadata !1000, metadata !1001, metadata !1245, metadata !1248, metadata !1249, metadata !1252, metadata !1253, metadata !1257, metadata !1258, metadata !1259, metadata !1260, metadata !1263, metadata !1264, metadata !1265, metadata !1266, metadata !1267, metadata !1268, metadata !1269, metadata !1270, metadata !1271, metadata !1272, metadata !1273, metadata !1274, metadata !1277, metadata !1280}
!795 = metadata !{i32 786460, metadata !793, null, metadata !145, i32 0, i64 0, i64 0, i64 0, i32 0, metadata !796} ; [ DW_TAG_inheritance ]
!796 = metadata !{i32 786434, null, metadata !"ssdm_int<64 + 1024 * 0, false>", metadata !149, i32 68, i64 64, i64 64, i32 0, i32 0, null, metadata !797, i32 0, null, metadata !804} ; [ DW_TAG_class_type ]
!797 = metadata !{metadata !798, metadata !800}
!798 = metadata !{i32 786445, metadata !796, metadata !"V", metadata !149, i32 68, i64 64, i64 64, i64 0, i32 0, metadata !799} ; [ DW_TAG_member ]
!799 = metadata !{i32 786468, null, metadata !"uint64", null, i32 0, i64 64, i64 64, i64 0, i32 0, i32 7} ; [ DW_TAG_base_type ]
!800 = metadata !{i32 786478, i32 0, metadata !796, metadata !"ssdm_int", metadata !"ssdm_int", metadata !"", metadata !149, i32 68, metadata !801, i1 false, i1 false, i32 0, i32 0, null, i32 256, i1 false, null, null, i32 0, metadata !157, i32 68} ; [ DW_TAG_subprogram ]
!801 = metadata !{i32 786453, i32 0, metadata !"", i32 0, i32 0, i64 0, i64 0, i64 0, i32 0, null, metadata !802, i32 0, i32 0} ; [ DW_TAG_subroutine_type ]
!802 = metadata !{null, metadata !803}
!803 = metadata !{i32 786447, i32 0, metadata !"", i32 0, i32 0, i64 64, i64 64, i64 0, i32 64, metadata !796} ; [ DW_TAG_pointer_type ]
!804 = metadata !{metadata !805, metadata !162}
!805 = metadata !{i32 786480, null, metadata !"_AP_N", metadata !161, i64 64, null, i32 0, i32 0} ; [ DW_TAG_template_value_parameter ]
!806 = metadata !{i32 786478, i32 0, metadata !793, metadata !"ap_int_base", metadata !"ap_int_base", metadata !"", metadata !145, i32 1494, metadata !807, i1 false, i1 false, i32 0, i32 0, null, i32 256, i1 false, null, null, i32 0, metadata !157, i32 1494} ; [ DW_TAG_subprogram ]
!807 = metadata !{i32 786453, i32 0, metadata !"", i32 0, i32 0, i64 0, i64 0, i64 0, i32 0, null, metadata !808, i32 0, i32 0} ; [ DW_TAG_subroutine_type ]
!808 = metadata !{null, metadata !809}
!809 = metadata !{i32 786447, i32 0, metadata !"", i32 0, i32 0, i64 64, i64 64, i64 0, i32 64, metadata !793} ; [ DW_TAG_pointer_type ]
!810 = metadata !{i32 786478, i32 0, metadata !793, metadata !"ap_int_base<64, false>", metadata !"ap_int_base<64, false>", metadata !"", metadata !145, i32 1506, metadata !811, i1 false, i1 false, i32 0, i32 0, null, i32 256, i1 false, null, metadata !815, i32 0, metadata !157, i32 1506} ; [ DW_TAG_subprogram ]
!811 = metadata !{i32 786453, i32 0, metadata !"", i32 0, i32 0, i64 0, i64 0, i64 0, i32 0, null, metadata !812, i32 0, i32 0} ; [ DW_TAG_subroutine_type ]
!812 = metadata !{null, metadata !809, metadata !813}
!813 = metadata !{i32 786448, null, null, null, i32 0, i64 0, i64 0, i64 0, i32 0, metadata !814} ; [ DW_TAG_reference_type ]
!814 = metadata !{i32 786470, null, metadata !"", null, i32 0, i64 0, i64 0, i64 0, i32 0, metadata !793} ; [ DW_TAG_const_type ]
!815 = metadata !{metadata !816, metadata !175}
!816 = metadata !{i32 786480, null, metadata !"_AP_W2", metadata !161, i64 64, null, i32 0, i32 0} ; [ DW_TAG_template_value_parameter ]
!817 = metadata !{i32 786478, i32 0, metadata !793, metadata !"ap_int_base<64, false>", metadata !"ap_int_base<64, false>", metadata !"", metadata !145, i32 1509, metadata !818, i1 false, i1 false, i32 0, i32 0, null, i32 256, i1 false, null, metadata !815, i32 0, metadata !157, i32 1509} ; [ DW_TAG_subprogram ]
!818 = metadata !{i32 786453, i32 0, metadata !"", i32 0, i32 0, i64 0, i64 0, i64 0, i32 0, null, metadata !819, i32 0, i32 0} ; [ DW_TAG_subroutine_type ]
!819 = metadata !{null, metadata !809, metadata !820}
!820 = metadata !{i32 786448, null, null, null, i32 0, i64 0, i64 0, i64 0, i32 0, metadata !821} ; [ DW_TAG_reference_type ]
!821 = metadata !{i32 786470, null, metadata !"", null, i32 0, i64 0, i64 0, i64 0, i32 0, metadata !822} ; [ DW_TAG_const_type ]
!822 = metadata !{i32 786485, null, metadata !"", null, i32 0, i64 0, i64 0, i64 0, i32 0, metadata !793} ; [ DW_TAG_volatile_type ]
!823 = metadata !{i32 786478, i32 0, metadata !793, metadata !"ap_int_base", metadata !"ap_int_base", metadata !"", metadata !145, i32 1516, metadata !824, i1 false, i1 false, i32 0, i32 0, null, i32 384, i1 false, null, null, i32 0, metadata !157, i32 1516} ; [ DW_TAG_subprogram ]
!824 = metadata !{i32 786453, i32 0, metadata !"", i32 0, i32 0, i64 0, i64 0, i64 0, i32 0, null, metadata !825, i32 0, i32 0} ; [ DW_TAG_subroutine_type ]
!825 = metadata !{null, metadata !809, metadata !163}
!826 = metadata !{i32 786478, i32 0, metadata !793, metadata !"ap_int_base", metadata !"ap_int_base", metadata !"", metadata !145, i32 1517, metadata !827, i1 false, i1 false, i32 0, i32 0, null, i32 384, i1 false, null, null, i32 0, metadata !157, i32 1517} ; [ DW_TAG_subprogram ]
!827 = metadata !{i32 786453, i32 0, metadata !"", i32 0, i32 0, i64 0, i64 0, i64 0, i32 0, null, metadata !828, i32 0, i32 0} ; [ DW_TAG_subroutine_type ]
!828 = metadata !{null, metadata !809, metadata !188}
!829 = metadata !{i32 786478, i32 0, metadata !793, metadata !"ap_int_base", metadata !"ap_int_base", metadata !"", metadata !145, i32 1518, metadata !830, i1 false, i1 false, i32 0, i32 0, null, i32 384, i1 false, null, null, i32 0, metadata !157, i32 1518} ; [ DW_TAG_subprogram ]
!830 = metadata !{i32 786453, i32 0, metadata !"", i32 0, i32 0, i64 0, i64 0, i64 0, i32 0, null, metadata !831, i32 0, i32 0} ; [ DW_TAG_subroutine_type ]
!831 = metadata !{null, metadata !809, metadata !192}
!832 = metadata !{i32 786478, i32 0, metadata !793, metadata !"ap_int_base", metadata !"ap_int_base", metadata !"", metadata !145, i32 1519, metadata !833, i1 false, i1 false, i32 0, i32 0, null, i32 384, i1 false, null, null, i32 0, metadata !157, i32 1519} ; [ DW_TAG_subprogram ]
!833 = metadata !{i32 786453, i32 0, metadata !"", i32 0, i32 0, i64 0, i64 0, i64 0, i32 0, null, metadata !834, i32 0, i32 0} ; [ DW_TAG_subroutine_type ]
!834 = metadata !{null, metadata !809, metadata !196}
!835 = metadata !{i32 786478, i32 0, metadata !793, metadata !"ap_int_base", metadata !"ap_int_base", metadata !"", metadata !145, i32 1520, metadata !836, i1 false, i1 false, i32 0, i32 0, null, i32 384, i1 false, null, null, i32 0, metadata !157, i32 1520} ; [ DW_TAG_subprogram ]
!836 = metadata !{i32 786453, i32 0, metadata !"", i32 0, i32 0, i64 0, i64 0, i64 0, i32 0, null, metadata !837, i32 0, i32 0} ; [ DW_TAG_subroutine_type ]
!837 = metadata !{null, metadata !809, metadata !200}
!838 = metadata !{i32 786478, i32 0, metadata !793, metadata !"ap_int_base", metadata !"ap_int_base", metadata !"", metadata !145, i32 1521, metadata !839, i1 false, i1 false, i32 0, i32 0, null, i32 384, i1 false, null, null, i32 0, metadata !157, i32 1521} ; [ DW_TAG_subprogram ]
!839 = metadata !{i32 786453, i32 0, metadata !"", i32 0, i32 0, i64 0, i64 0, i64 0, i32 0, null, metadata !840, i32 0, i32 0} ; [ DW_TAG_subroutine_type ]
!840 = metadata !{null, metadata !809, metadata !161}
!841 = metadata !{i32 786478, i32 0, metadata !793, metadata !"ap_int_base", metadata !"ap_int_base", metadata !"", metadata !145, i32 1522, metadata !842, i1 false, i1 false, i32 0, i32 0, null, i32 384, i1 false, null, null, i32 0, metadata !157, i32 1522} ; [ DW_TAG_subprogram ]
!842 = metadata !{i32 786453, i32 0, metadata !"", i32 0, i32 0, i64 0, i64 0, i64 0, i32 0, null, metadata !843, i32 0, i32 0} ; [ DW_TAG_subroutine_type ]
!843 = metadata !{null, metadata !809, metadata !207}
!844 = metadata !{i32 786478, i32 0, metadata !793, metadata !"ap_int_base", metadata !"ap_int_base", metadata !"", metadata !145, i32 1523, metadata !845, i1 false, i1 false, i32 0, i32 0, null, i32 384, i1 false, null, null, i32 0, metadata !157, i32 1523} ; [ DW_TAG_subprogram ]
!845 = metadata !{i32 786453, i32 0, metadata !"", i32 0, i32 0, i64 0, i64 0, i64 0, i32 0, null, metadata !846, i32 0, i32 0} ; [ DW_TAG_subroutine_type ]
!846 = metadata !{null, metadata !809, metadata !211}
!847 = metadata !{i32 786478, i32 0, metadata !793, metadata !"ap_int_base", metadata !"ap_int_base", metadata !"", metadata !145, i32 1524, metadata !848, i1 false, i1 false, i32 0, i32 0, null, i32 384, i1 false, null, null, i32 0, metadata !157, i32 1524} ; [ DW_TAG_subprogram ]
!848 = metadata !{i32 786453, i32 0, metadata !"", i32 0, i32 0, i64 0, i64 0, i64 0, i32 0, null, metadata !849, i32 0, i32 0} ; [ DW_TAG_subroutine_type ]
!849 = metadata !{null, metadata !809, metadata !215}
!850 = metadata !{i32 786478, i32 0, metadata !793, metadata !"ap_int_base", metadata !"ap_int_base", metadata !"", metadata !145, i32 1525, metadata !851, i1 false, i1 false, i32 0, i32 0, null, i32 384, i1 false, null, null, i32 0, metadata !157, i32 1525} ; [ DW_TAG_subprogram ]
!851 = metadata !{i32 786453, i32 0, metadata !"", i32 0, i32 0, i64 0, i64 0, i64 0, i32 0, null, metadata !852, i32 0, i32 0} ; [ DW_TAG_subroutine_type ]
!852 = metadata !{null, metadata !809, metadata !219}
!853 = metadata !{i32 786478, i32 0, metadata !793, metadata !"ap_int_base", metadata !"ap_int_base", metadata !"", metadata !145, i32 1526, metadata !854, i1 false, i1 false, i32 0, i32 0, null, i32 384, i1 false, null, null, i32 0, metadata !157, i32 1526} ; [ DW_TAG_subprogram ]
!854 = metadata !{i32 786453, i32 0, metadata !"", i32 0, i32 0, i64 0, i64 0, i64 0, i32 0, null, metadata !855, i32 0, i32 0} ; [ DW_TAG_subroutine_type ]
!855 = metadata !{null, metadata !809, metadata !224}
!856 = metadata !{i32 786478, i32 0, metadata !793, metadata !"ap_int_base", metadata !"ap_int_base", metadata !"", metadata !145, i32 1527, metadata !857, i1 false, i1 false, i32 0, i32 0, null, i32 384, i1 false, null, null, i32 0, metadata !157, i32 1527} ; [ DW_TAG_subprogram ]
!857 = metadata !{i32 786453, i32 0, metadata !"", i32 0, i32 0, i64 0, i64 0, i64 0, i32 0, null, metadata !858, i32 0, i32 0} ; [ DW_TAG_subroutine_type ]
!858 = metadata !{null, metadata !809, metadata !229}
!859 = metadata !{i32 786478, i32 0, metadata !793, metadata !"ap_int_base", metadata !"ap_int_base", metadata !"", metadata !145, i32 1528, metadata !860, i1 false, i1 false, i32 0, i32 0, null, i32 384, i1 false, null, null, i32 0, metadata !157, i32 1528} ; [ DW_TAG_subprogram ]
!860 = metadata !{i32 786453, i32 0, metadata !"", i32 0, i32 0, i64 0, i64 0, i64 0, i32 0, null, metadata !861, i32 0, i32 0} ; [ DW_TAG_subroutine_type ]
!861 = metadata !{null, metadata !809, metadata !234}
!862 = metadata !{i32 786478, i32 0, metadata !793, metadata !"ap_int_base", metadata !"ap_int_base", metadata !"", metadata !145, i32 1529, metadata !863, i1 false, i1 false, i32 0, i32 0, null, i32 384, i1 false, null, null, i32 0, metadata !157, i32 1529} ; [ DW_TAG_subprogram ]
!863 = metadata !{i32 786453, i32 0, metadata !"", i32 0, i32 0, i64 0, i64 0, i64 0, i32 0, null, metadata !864, i32 0, i32 0} ; [ DW_TAG_subroutine_type ]
!864 = metadata !{null, metadata !809, metadata !238}
!865 = metadata !{i32 786478, i32 0, metadata !793, metadata !"ap_int_base", metadata !"ap_int_base", metadata !"", metadata !145, i32 1556, metadata !866, i1 false, i1 false, i32 0, i32 0, null, i32 256, i1 false, null, null, i32 0, metadata !157, i32 1556} ; [ DW_TAG_subprogram ]
!866 = metadata !{i32 786453, i32 0, metadata !"", i32 0, i32 0, i64 0, i64 0, i64 0, i32 0, null, metadata !867, i32 0, i32 0} ; [ DW_TAG_subroutine_type ]
!867 = metadata !{null, metadata !809, metadata !242}
!868 = metadata !{i32 786478, i32 0, metadata !793, metadata !"ap_int_base", metadata !"ap_int_base", metadata !"", metadata !145, i32 1563, metadata !869, i1 false, i1 false, i32 0, i32 0, null, i32 256, i1 false, null, null, i32 0, metadata !157, i32 1563} ; [ DW_TAG_subprogram ]
!869 = metadata !{i32 786453, i32 0, metadata !"", i32 0, i32 0, i64 0, i64 0, i64 0, i32 0, null, metadata !870, i32 0, i32 0} ; [ DW_TAG_subroutine_type ]
!870 = metadata !{null, metadata !809, metadata !242, metadata !188}
!871 = metadata !{i32 786478, i32 0, metadata !793, metadata !"read", metadata !"read", metadata !"_ZNV11ap_int_baseILi64ELb0ELb1EE4readEv", metadata !145, i32 1584, metadata !872, i1 false, i1 false, i32 0, i32 0, null, i32 256, i1 false, null, null, i32 0, metadata !157, i32 1584} ; [ DW_TAG_subprogram ]
!872 = metadata !{i32 786453, i32 0, metadata !"", i32 0, i32 0, i64 0, i64 0, i64 0, i32 0, null, metadata !873, i32 0, i32 0} ; [ DW_TAG_subroutine_type ]
!873 = metadata !{metadata !793, metadata !874}
!874 = metadata !{i32 786447, i32 0, metadata !"", i32 0, i32 0, i64 64, i64 64, i64 0, i32 64, metadata !822} ; [ DW_TAG_pointer_type ]
!875 = metadata !{i32 786478, i32 0, metadata !793, metadata !"write", metadata !"write", metadata !"_ZNV11ap_int_baseILi64ELb0ELb1EE5writeERKS0_", metadata !145, i32 1590, metadata !876, i1 false, i1 false, i32 0, i32 0, null, i32 256, i1 false, null, null, i32 0, metadata !157, i32 1590} ; [ DW_TAG_subprogram ]
!876 = metadata !{i32 786453, i32 0, metadata !"", i32 0, i32 0, i64 0, i64 0, i64 0, i32 0, null, metadata !877, i32 0, i32 0} ; [ DW_TAG_subroutine_type ]
!877 = metadata !{null, metadata !874, metadata !813}
!878 = metadata !{i32 786478, i32 0, metadata !793, metadata !"operator=", metadata !"operator=", metadata !"_ZNV11ap_int_baseILi64ELb0ELb1EEaSERVKS0_", metadata !145, i32 1602, metadata !879, i1 false, i1 false, i32 0, i32 0, null, i32 256, i1 false, null, null, i32 0, metadata !157, i32 1602} ; [ DW_TAG_subprogram ]
!879 = metadata !{i32 786453, i32 0, metadata !"", i32 0, i32 0, i64 0, i64 0, i64 0, i32 0, null, metadata !880, i32 0, i32 0} ; [ DW_TAG_subroutine_type ]
!880 = metadata !{null, metadata !874, metadata !820}
!881 = metadata !{i32 786478, i32 0, metadata !793, metadata !"operator=", metadata !"operator=", metadata !"_ZNV11ap_int_baseILi64ELb0ELb1EEaSERKS0_", metadata !145, i32 1611, metadata !876, i1 false, i1 false, i32 0, i32 0, null, i32 256, i1 false, null, null, i32 0, metadata !157, i32 1611} ; [ DW_TAG_subprogram ]
!882 = metadata !{i32 786478, i32 0, metadata !793, metadata !"operator=", metadata !"operator=", metadata !"_ZN11ap_int_baseILi64ELb0ELb1EEaSERVKS0_", metadata !145, i32 1634, metadata !883, i1 false, i1 false, i32 0, i32 0, null, i32 256, i1 false, null, null, i32 0, metadata !157, i32 1634} ; [ DW_TAG_subprogram ]
!883 = metadata !{i32 786453, i32 0, metadata !"", i32 0, i32 0, i64 0, i64 0, i64 0, i32 0, null, metadata !884, i32 0, i32 0} ; [ DW_TAG_subroutine_type ]
!884 = metadata !{metadata !792, metadata !809, metadata !820}
!885 = metadata !{i32 786478, i32 0, metadata !793, metadata !"operator=", metadata !"operator=", metadata !"_ZN11ap_int_baseILi64ELb0ELb1EEaSERKS0_", metadata !145, i32 1639, metadata !886, i1 false, i1 false, i32 0, i32 0, null, i32 256, i1 false, null, null, i32 0, metadata !157, i32 1639} ; [ DW_TAG_subprogram ]
!886 = metadata !{i32 786453, i32 0, metadata !"", i32 0, i32 0, i64 0, i64 0, i64 0, i32 0, null, metadata !887, i32 0, i32 0} ; [ DW_TAG_subroutine_type ]
!887 = metadata !{metadata !792, metadata !809, metadata !813}
!888 = metadata !{i32 786478, i32 0, metadata !793, metadata !"operator=", metadata !"operator=", metadata !"_ZN11ap_int_baseILi64ELb0ELb1EEaSEPKc", metadata !145, i32 1643, metadata !889, i1 false, i1 false, i32 0, i32 0, null, i32 256, i1 false, null, null, i32 0, metadata !157, i32 1643} ; [ DW_TAG_subprogram ]
!889 = metadata !{i32 786453, i32 0, metadata !"", i32 0, i32 0, i64 0, i64 0, i64 0, i32 0, null, metadata !890, i32 0, i32 0} ; [ DW_TAG_subroutine_type ]
!890 = metadata !{metadata !792, metadata !809, metadata !242}
!891 = metadata !{i32 786478, i32 0, metadata !793, metadata !"set", metadata !"set", metadata !"_ZN11ap_int_baseILi64ELb0ELb1EE3setEPKca", metadata !145, i32 1651, metadata !892, i1 false, i1 false, i32 0, i32 0, null, i32 256, i1 false, null, null, i32 0, metadata !157, i32 1651} ; [ DW_TAG_subprogram ]
!892 = metadata !{i32 786453, i32 0, metadata !"", i32 0, i32 0, i64 0, i64 0, i64 0, i32 0, null, metadata !893, i32 0, i32 0} ; [ DW_TAG_subroutine_type ]
!893 = metadata !{metadata !792, metadata !809, metadata !242, metadata !188}
!894 = metadata !{i32 786478, i32 0, metadata !793, metadata !"operator=", metadata !"operator=", metadata !"_ZN11ap_int_baseILi64ELb0ELb1EEaSEa", metadata !145, i32 1665, metadata !895, i1 false, i1 false, i32 0, i32 0, null, i32 256, i1 false, null, null, i32 0, metadata !157, i32 1665} ; [ DW_TAG_subprogram ]
!895 = metadata !{i32 786453, i32 0, metadata !"", i32 0, i32 0, i64 0, i64 0, i64 0, i32 0, null, metadata !896, i32 0, i32 0} ; [ DW_TAG_subroutine_type ]
!896 = metadata !{metadata !792, metadata !809, metadata !188}
!897 = metadata !{i32 786478, i32 0, metadata !793, metadata !"operator=", metadata !"operator=", metadata !"_ZN11ap_int_baseILi64ELb0ELb1EEaSEh", metadata !145, i32 1666, metadata !898, i1 false, i1 false, i32 0, i32 0, null, i32 256, i1 false, null, null, i32 0, metadata !157, i32 1666} ; [ DW_TAG_subprogram ]
!898 = metadata !{i32 786453, i32 0, metadata !"", i32 0, i32 0, i64 0, i64 0, i64 0, i32 0, null, metadata !899, i32 0, i32 0} ; [ DW_TAG_subroutine_type ]
!899 = metadata !{metadata !792, metadata !809, metadata !192}
!900 = metadata !{i32 786478, i32 0, metadata !793, metadata !"operator=", metadata !"operator=", metadata !"_ZN11ap_int_baseILi64ELb0ELb1EEaSEs", metadata !145, i32 1667, metadata !901, i1 false, i1 false, i32 0, i32 0, null, i32 256, i1 false, null, null, i32 0, metadata !157, i32 1667} ; [ DW_TAG_subprogram ]
!901 = metadata !{i32 786453, i32 0, metadata !"", i32 0, i32 0, i64 0, i64 0, i64 0, i32 0, null, metadata !902, i32 0, i32 0} ; [ DW_TAG_subroutine_type ]
!902 = metadata !{metadata !792, metadata !809, metadata !196}
!903 = metadata !{i32 786478, i32 0, metadata !793, metadata !"operator=", metadata !"operator=", metadata !"_ZN11ap_int_baseILi64ELb0ELb1EEaSEt", metadata !145, i32 1668, metadata !904, i1 false, i1 false, i32 0, i32 0, null, i32 256, i1 false, null, null, i32 0, metadata !157, i32 1668} ; [ DW_TAG_subprogram ]
!904 = metadata !{i32 786453, i32 0, metadata !"", i32 0, i32 0, i64 0, i64 0, i64 0, i32 0, null, metadata !905, i32 0, i32 0} ; [ DW_TAG_subroutine_type ]
!905 = metadata !{metadata !792, metadata !809, metadata !200}
!906 = metadata !{i32 786478, i32 0, metadata !793, metadata !"operator=", metadata !"operator=", metadata !"_ZN11ap_int_baseILi64ELb0ELb1EEaSEi", metadata !145, i32 1669, metadata !907, i1 false, i1 false, i32 0, i32 0, null, i32 256, i1 false, null, null, i32 0, metadata !157, i32 1669} ; [ DW_TAG_subprogram ]
!907 = metadata !{i32 786453, i32 0, metadata !"", i32 0, i32 0, i64 0, i64 0, i64 0, i32 0, null, metadata !908, i32 0, i32 0} ; [ DW_TAG_subroutine_type ]
!908 = metadata !{metadata !792, metadata !809, metadata !161}
!909 = metadata !{i32 786478, i32 0, metadata !793, metadata !"operator=", metadata !"operator=", metadata !"_ZN11ap_int_baseILi64ELb0ELb1EEaSEj", metadata !145, i32 1670, metadata !910, i1 false, i1 false, i32 0, i32 0, null, i32 256, i1 false, null, null, i32 0, metadata !157, i32 1670} ; [ DW_TAG_subprogram ]
!910 = metadata !{i32 786453, i32 0, metadata !"", i32 0, i32 0, i64 0, i64 0, i64 0, i32 0, null, metadata !911, i32 0, i32 0} ; [ DW_TAG_subroutine_type ]
!911 = metadata !{metadata !792, metadata !809, metadata !207}
!912 = metadata !{i32 786478, i32 0, metadata !793, metadata !"operator=", metadata !"operator=", metadata !"_ZN11ap_int_baseILi64ELb0ELb1EEaSEx", metadata !145, i32 1671, metadata !913, i1 false, i1 false, i32 0, i32 0, null, i32 256, i1 false, null, null, i32 0, metadata !157, i32 1671} ; [ DW_TAG_subprogram ]
!913 = metadata !{i32 786453, i32 0, metadata !"", i32 0, i32 0, i64 0, i64 0, i64 0, i32 0, null, metadata !914, i32 0, i32 0} ; [ DW_TAG_subroutine_type ]
!914 = metadata !{metadata !792, metadata !809, metadata !219}
!915 = metadata !{i32 786478, i32 0, metadata !793, metadata !"operator=", metadata !"operator=", metadata !"_ZN11ap_int_baseILi64ELb0ELb1EEaSEy", metadata !145, i32 1672, metadata !916, i1 false, i1 false, i32 0, i32 0, null, i32 256, i1 false, null, null, i32 0, metadata !157, i32 1672} ; [ DW_TAG_subprogram ]
!916 = metadata !{i32 786453, i32 0, metadata !"", i32 0, i32 0, i64 0, i64 0, i64 0, i32 0, null, metadata !917, i32 0, i32 0} ; [ DW_TAG_subroutine_type ]
!917 = metadata !{metadata !792, metadata !809, metadata !224}
!918 = metadata !{i32 786478, i32 0, metadata !793, metadata !"operator unsigned long long", metadata !"operator unsigned long long", metadata !"_ZNK11ap_int_baseILi64ELb0ELb1EEcvyEv", metadata !145, i32 1710, metadata !919, i1 false, i1 false, i32 0, i32 0, null, i32 256, i1 false, null, null, i32 0, metadata !157, i32 1710} ; [ DW_TAG_subprogram ]
!919 = metadata !{i32 786453, i32 0, metadata !"", i32 0, i32 0, i64 0, i64 0, i64 0, i32 0, null, metadata !920, i32 0, i32 0} ; [ DW_TAG_subroutine_type ]
!920 = metadata !{metadata !921, metadata !926}
!921 = metadata !{i32 786454, metadata !793, metadata !"RetType", metadata !145, i32 1458, i64 0, i64 0, i64 0, i32 0, metadata !922} ; [ DW_TAG_typedef ]
!922 = metadata !{i32 786454, metadata !923, metadata !"Type", metadata !145, i32 1419, i64 0, i64 0, i64 0, i32 0, metadata !224} ; [ DW_TAG_typedef ]
!923 = metadata !{i32 786434, null, metadata !"retval<8, false>", metadata !145, i32 1418, i64 8, i64 8, i32 0, i32 0, null, metadata !302, i32 0, null, metadata !924} ; [ DW_TAG_class_type ]
!924 = metadata !{metadata !925, metadata !162}
!925 = metadata !{i32 786480, null, metadata !"_AP_N", metadata !161, i64 8, null, i32 0, i32 0} ; [ DW_TAG_template_value_parameter ]
!926 = metadata !{i32 786447, i32 0, metadata !"", i32 0, i32 0, i64 64, i64 64, i64 0, i32 64, metadata !814} ; [ DW_TAG_pointer_type ]
!927 = metadata !{i32 786478, i32 0, metadata !793, metadata !"to_bool", metadata !"to_bool", metadata !"_ZNK11ap_int_baseILi64ELb0ELb1EE7to_boolEv", metadata !145, i32 1716, metadata !928, i1 false, i1 false, i32 0, i32 0, null, i32 256, i1 false, null, null, i32 0, metadata !157, i32 1716} ; [ DW_TAG_subprogram ]
!928 = metadata !{i32 786453, i32 0, metadata !"", i32 0, i32 0, i64 0, i64 0, i64 0, i32 0, null, metadata !929, i32 0, i32 0} ; [ DW_TAG_subroutine_type ]
!929 = metadata !{metadata !163, metadata !926}
!930 = metadata !{i32 786478, i32 0, metadata !793, metadata !"to_uchar", metadata !"to_uchar", metadata !"_ZNK11ap_int_baseILi64ELb0ELb1EE8to_ucharEv", metadata !145, i32 1717, metadata !931, i1 false, i1 false, i32 0, i32 0, null, i32 256, i1 false, null, null, i32 0, metadata !157, i32 1717} ; [ DW_TAG_subprogram ]
!931 = metadata !{i32 786453, i32 0, metadata !"", i32 0, i32 0, i64 0, i64 0, i64 0, i32 0, null, metadata !932, i32 0, i32 0} ; [ DW_TAG_subroutine_type ]
!932 = metadata !{metadata !192, metadata !926}
!933 = metadata !{i32 786478, i32 0, metadata !793, metadata !"to_char", metadata !"to_char", metadata !"_ZNK11ap_int_baseILi64ELb0ELb1EE7to_charEv", metadata !145, i32 1718, metadata !934, i1 false, i1 false, i32 0, i32 0, null, i32 256, i1 false, null, null, i32 0, metadata !157, i32 1718} ; [ DW_TAG_subprogram ]
!934 = metadata !{i32 786453, i32 0, metadata !"", i32 0, i32 0, i64 0, i64 0, i64 0, i32 0, null, metadata !935, i32 0, i32 0} ; [ DW_TAG_subroutine_type ]
!935 = metadata !{metadata !188, metadata !926}
!936 = metadata !{i32 786478, i32 0, metadata !793, metadata !"to_ushort", metadata !"to_ushort", metadata !"_ZNK11ap_int_baseILi64ELb0ELb1EE9to_ushortEv", metadata !145, i32 1719, metadata !937, i1 false, i1 false, i32 0, i32 0, null, i32 256, i1 false, null, null, i32 0, metadata !157, i32 1719} ; [ DW_TAG_subprogram ]
!937 = metadata !{i32 786453, i32 0, metadata !"", i32 0, i32 0, i64 0, i64 0, i64 0, i32 0, null, metadata !938, i32 0, i32 0} ; [ DW_TAG_subroutine_type ]
!938 = metadata !{metadata !200, metadata !926}
!939 = metadata !{i32 786478, i32 0, metadata !793, metadata !"to_short", metadata !"to_short", metadata !"_ZNK11ap_int_baseILi64ELb0ELb1EE8to_shortEv", metadata !145, i32 1720, metadata !940, i1 false, i1 false, i32 0, i32 0, null, i32 256, i1 false, null, null, i32 0, metadata !157, i32 1720} ; [ DW_TAG_subprogram ]
!940 = metadata !{i32 786453, i32 0, metadata !"", i32 0, i32 0, i64 0, i64 0, i64 0, i32 0, null, metadata !941, i32 0, i32 0} ; [ DW_TAG_subroutine_type ]
!941 = metadata !{metadata !196, metadata !926}
!942 = metadata !{i32 786478, i32 0, metadata !793, metadata !"to_int", metadata !"to_int", metadata !"_ZNK11ap_int_baseILi64ELb0ELb1EE6to_intEv", metadata !145, i32 1721, metadata !943, i1 false, i1 false, i32 0, i32 0, null, i32 256, i1 false, null, null, i32 0, metadata !157, i32 1721} ; [ DW_TAG_subprogram ]
!943 = metadata !{i32 786453, i32 0, metadata !"", i32 0, i32 0, i64 0, i64 0, i64 0, i32 0, null, metadata !944, i32 0, i32 0} ; [ DW_TAG_subroutine_type ]
!944 = metadata !{metadata !161, metadata !926}
!945 = metadata !{i32 786478, i32 0, metadata !793, metadata !"to_uint", metadata !"to_uint", metadata !"_ZNK11ap_int_baseILi64ELb0ELb1EE7to_uintEv", metadata !145, i32 1722, metadata !946, i1 false, i1 false, i32 0, i32 0, null, i32 256, i1 false, null, null, i32 0, metadata !157, i32 1722} ; [ DW_TAG_subprogram ]
!946 = metadata !{i32 786453, i32 0, metadata !"", i32 0, i32 0, i64 0, i64 0, i64 0, i32 0, null, metadata !947, i32 0, i32 0} ; [ DW_TAG_subroutine_type ]
!947 = metadata !{metadata !207, metadata !926}
!948 = metadata !{i32 786478, i32 0, metadata !793, metadata !"to_long", metadata !"to_long", metadata !"_ZNK11ap_int_baseILi64ELb0ELb1EE7to_longEv", metadata !145, i32 1723, metadata !949, i1 false, i1 false, i32 0, i32 0, null, i32 256, i1 false, null, null, i32 0, metadata !157, i32 1723} ; [ DW_TAG_subprogram ]
!949 = metadata !{i32 786453, i32 0, metadata !"", i32 0, i32 0, i64 0, i64 0, i64 0, i32 0, null, metadata !950, i32 0, i32 0} ; [ DW_TAG_subroutine_type ]
!950 = metadata !{metadata !211, metadata !926}
!951 = metadata !{i32 786478, i32 0, metadata !793, metadata !"to_ulong", metadata !"to_ulong", metadata !"_ZNK11ap_int_baseILi64ELb0ELb1EE8to_ulongEv", metadata !145, i32 1724, metadata !952, i1 false, i1 false, i32 0, i32 0, null, i32 256, i1 false, null, null, i32 0, metadata !157, i32 1724} ; [ DW_TAG_subprogram ]
!952 = metadata !{i32 786453, i32 0, metadata !"", i32 0, i32 0, i64 0, i64 0, i64 0, i32 0, null, metadata !953, i32 0, i32 0} ; [ DW_TAG_subroutine_type ]
!953 = metadata !{metadata !215, metadata !926}
!954 = metadata !{i32 786478, i32 0, metadata !793, metadata !"to_int64", metadata !"to_int64", metadata !"_ZNK11ap_int_baseILi64ELb0ELb1EE8to_int64Ev", metadata !145, i32 1725, metadata !955, i1 false, i1 false, i32 0, i32 0, null, i32 256, i1 false, null, null, i32 0, metadata !157, i32 1725} ; [ DW_TAG_subprogram ]
!955 = metadata !{i32 786453, i32 0, metadata !"", i32 0, i32 0, i64 0, i64 0, i64 0, i32 0, null, metadata !956, i32 0, i32 0} ; [ DW_TAG_subroutine_type ]
!956 = metadata !{metadata !219, metadata !926}
!957 = metadata !{i32 786478, i32 0, metadata !793, metadata !"to_uint64", metadata !"to_uint64", metadata !"_ZNK11ap_int_baseILi64ELb0ELb1EE9to_uint64Ev", metadata !145, i32 1726, metadata !958, i1 false, i1 false, i32 0, i32 0, null, i32 256, i1 false, null, null, i32 0, metadata !157, i32 1726} ; [ DW_TAG_subprogram ]
!958 = metadata !{i32 786453, i32 0, metadata !"", i32 0, i32 0, i64 0, i64 0, i64 0, i32 0, null, metadata !959, i32 0, i32 0} ; [ DW_TAG_subroutine_type ]
!959 = metadata !{metadata !224, metadata !926}
!960 = metadata !{i32 786478, i32 0, metadata !793, metadata !"to_double", metadata !"to_double", metadata !"_ZNK11ap_int_baseILi64ELb0ELb1EE9to_doubleEv", metadata !145, i32 1727, metadata !961, i1 false, i1 false, i32 0, i32 0, null, i32 256, i1 false, null, null, i32 0, metadata !157, i32 1727} ; [ DW_TAG_subprogram ]
!961 = metadata !{i32 786453, i32 0, metadata !"", i32 0, i32 0, i64 0, i64 0, i64 0, i32 0, null, metadata !962, i32 0, i32 0} ; [ DW_TAG_subroutine_type ]
!962 = metadata !{metadata !238, metadata !926}
!963 = metadata !{i32 786478, i32 0, metadata !793, metadata !"length", metadata !"length", metadata !"_ZNK11ap_int_baseILi64ELb0ELb1EE6lengthEv", metadata !145, i32 1741, metadata !943, i1 false, i1 false, i32 0, i32 0, null, i32 256, i1 false, null, null, i32 0, metadata !157, i32 1741} ; [ DW_TAG_subprogram ]
!964 = metadata !{i32 786478, i32 0, metadata !793, metadata !"length", metadata !"length", metadata !"_ZNVK11ap_int_baseILi64ELb0ELb1EE6lengthEv", metadata !145, i32 1742, metadata !965, i1 false, i1 false, i32 0, i32 0, null, i32 256, i1 false, null, null, i32 0, metadata !157, i32 1742} ; [ DW_TAG_subprogram ]
!965 = metadata !{i32 786453, i32 0, metadata !"", i32 0, i32 0, i64 0, i64 0, i64 0, i32 0, null, metadata !966, i32 0, i32 0} ; [ DW_TAG_subroutine_type ]
!966 = metadata !{metadata !161, metadata !967}
!967 = metadata !{i32 786447, i32 0, metadata !"", i32 0, i32 0, i64 64, i64 64, i64 0, i32 64, metadata !821} ; [ DW_TAG_pointer_type ]
!968 = metadata !{i32 786478, i32 0, metadata !793, metadata !"reverse", metadata !"reverse", metadata !"_ZN11ap_int_baseILi64ELb0ELb1EE7reverseEv", metadata !145, i32 1747, metadata !969, i1 false, i1 false, i32 0, i32 0, null, i32 256, i1 false, null, null, i32 0, metadata !157, i32 1747} ; [ DW_TAG_subprogram ]
!969 = metadata !{i32 786453, i32 0, metadata !"", i32 0, i32 0, i64 0, i64 0, i64 0, i32 0, null, metadata !970, i32 0, i32 0} ; [ DW_TAG_subroutine_type ]
!970 = metadata !{metadata !792, metadata !809}
!971 = metadata !{i32 786478, i32 0, metadata !793, metadata !"iszero", metadata !"iszero", metadata !"_ZNK11ap_int_baseILi64ELb0ELb1EE6iszeroEv", metadata !145, i32 1753, metadata !928, i1 false, i1 false, i32 0, i32 0, null, i32 256, i1 false, null, null, i32 0, metadata !157, i32 1753} ; [ DW_TAG_subprogram ]
!972 = metadata !{i32 786478, i32 0, metadata !793, metadata !"is_zero", metadata !"is_zero", metadata !"_ZNK11ap_int_baseILi64ELb0ELb1EE7is_zeroEv", metadata !145, i32 1758, metadata !928, i1 false, i1 false, i32 0, i32 0, null, i32 256, i1 false, null, null, i32 0, metadata !157, i32 1758} ; [ DW_TAG_subprogram ]
!973 = metadata !{i32 786478, i32 0, metadata !793, metadata !"sign", metadata !"sign", metadata !"_ZNK11ap_int_baseILi64ELb0ELb1EE4signEv", metadata !145, i32 1763, metadata !928, i1 false, i1 false, i32 0, i32 0, null, i32 256, i1 false, null, null, i32 0, metadata !157, i32 1763} ; [ DW_TAG_subprogram ]
!974 = metadata !{i32 786478, i32 0, metadata !793, metadata !"clear", metadata !"clear", metadata !"_ZN11ap_int_baseILi64ELb0ELb1EE5clearEi", metadata !145, i32 1771, metadata !839, i1 false, i1 false, i32 0, i32 0, null, i32 256, i1 false, null, null, i32 0, metadata !157, i32 1771} ; [ DW_TAG_subprogram ]
!975 = metadata !{i32 786478, i32 0, metadata !793, metadata !"invert", metadata !"invert", metadata !"_ZN11ap_int_baseILi64ELb0ELb1EE6invertEi", metadata !145, i32 1777, metadata !839, i1 false, i1 false, i32 0, i32 0, null, i32 256, i1 false, null, null, i32 0, metadata !157, i32 1777} ; [ DW_TAG_subprogram ]
!976 = metadata !{i32 786478, i32 0, metadata !793, metadata !"test", metadata !"test", metadata !"_ZNK11ap_int_baseILi64ELb0ELb1EE4testEi", metadata !145, i32 1785, metadata !977, i1 false, i1 false, i32 0, i32 0, null, i32 256, i1 false, null, null, i32 0, metadata !157, i32 1785} ; [ DW_TAG_subprogram ]
!977 = metadata !{i32 786453, i32 0, metadata !"", i32 0, i32 0, i64 0, i64 0, i64 0, i32 0, null, metadata !978, i32 0, i32 0} ; [ DW_TAG_subroutine_type ]
!978 = metadata !{metadata !163, metadata !926, metadata !161}
!979 = metadata !{i32 786478, i32 0, metadata !793, metadata !"set", metadata !"set", metadata !"_ZN11ap_int_baseILi64ELb0ELb1EE3setEi", metadata !145, i32 1791, metadata !839, i1 false, i1 false, i32 0, i32 0, null, i32 256, i1 false, null, null, i32 0, metadata !157, i32 1791} ; [ DW_TAG_subprogram ]
!980 = metadata !{i32 786478, i32 0, metadata !793, metadata !"set", metadata !"set", metadata !"_ZN11ap_int_baseILi64ELb0ELb1EE3setEib", metadata !145, i32 1797, metadata !981, i1 false, i1 false, i32 0, i32 0, null, i32 256, i1 false, null, null, i32 0, metadata !157, i32 1797} ; [ DW_TAG_subprogram ]
!981 = metadata !{i32 786453, i32 0, metadata !"", i32 0, i32 0, i64 0, i64 0, i64 0, i32 0, null, metadata !982, i32 0, i32 0} ; [ DW_TAG_subroutine_type ]
!982 = metadata !{null, metadata !809, metadata !161, metadata !163}
!983 = metadata !{i32 786478, i32 0, metadata !793, metadata !"lrotate", metadata !"lrotate", metadata !"_ZN11ap_int_baseILi64ELb0ELb1EE7lrotateEi", metadata !145, i32 1804, metadata !839, i1 false, i1 false, i32 0, i32 0, null, i32 256, i1 false, null, null, i32 0, metadata !157, i32 1804} ; [ DW_TAG_subprogram ]
!984 = metadata !{i32 786478, i32 0, metadata !793, metadata !"rrotate", metadata !"rrotate", metadata !"_ZN11ap_int_baseILi64ELb0ELb1EE7rrotateEi", metadata !145, i32 1813, metadata !839, i1 false, i1 false, i32 0, i32 0, null, i32 256, i1 false, null, null, i32 0, metadata !157, i32 1813} ; [ DW_TAG_subprogram ]
!985 = metadata !{i32 786478, i32 0, metadata !793, metadata !"set_bit", metadata !"set_bit", metadata !"_ZN11ap_int_baseILi64ELb0ELb1EE7set_bitEib", metadata !145, i32 1821, metadata !981, i1 false, i1 false, i32 0, i32 0, null, i32 256, i1 false, null, null, i32 0, metadata !157, i32 1821} ; [ DW_TAG_subprogram ]
!986 = metadata !{i32 786478, i32 0, metadata !793, metadata !"get_bit", metadata !"get_bit", metadata !"_ZNK11ap_int_baseILi64ELb0ELb1EE7get_bitEi", metadata !145, i32 1826, metadata !977, i1 false, i1 false, i32 0, i32 0, null, i32 256, i1 false, null, null, i32 0, metadata !157, i32 1826} ; [ DW_TAG_subprogram ]
!987 = metadata !{i32 786478, i32 0, metadata !793, metadata !"b_not", metadata !"b_not", metadata !"_ZN11ap_int_baseILi64ELb0ELb1EE5b_notEv", metadata !145, i32 1831, metadata !807, i1 false, i1 false, i32 0, i32 0, null, i32 256, i1 false, null, null, i32 0, metadata !157, i32 1831} ; [ DW_TAG_subprogram ]
!988 = metadata !{i32 786478, i32 0, metadata !793, metadata !"countLeadingZeros", metadata !"countLeadingZeros", metadata !"_ZN11ap_int_baseILi64ELb0ELb1EE17countLeadingZerosEv", metadata !145, i32 1838, metadata !989, i1 false, i1 false, i32 0, i32 0, null, i32 256, i1 false, null, null, i32 0, metadata !157, i32 1838} ; [ DW_TAG_subprogram ]
!989 = metadata !{i32 786453, i32 0, metadata !"", i32 0, i32 0, i64 0, i64 0, i64 0, i32 0, null, metadata !990, i32 0, i32 0} ; [ DW_TAG_subroutine_type ]
!990 = metadata !{metadata !161, metadata !809}
!991 = metadata !{i32 786478, i32 0, metadata !793, metadata !"operator++", metadata !"operator++", metadata !"_ZN11ap_int_baseILi64ELb0ELb1EEppEv", metadata !145, i32 1895, metadata !969, i1 false, i1 false, i32 0, i32 0, null, i32 256, i1 false, null, null, i32 0, metadata !157, i32 1895} ; [ DW_TAG_subprogram ]
!992 = metadata !{i32 786478, i32 0, metadata !793, metadata !"operator--", metadata !"operator--", metadata !"_ZN11ap_int_baseILi64ELb0ELb1EEmmEv", metadata !145, i32 1899, metadata !969, i1 false, i1 false, i32 0, i32 0, null, i32 256, i1 false, null, null, i32 0, metadata !157, i32 1899} ; [ DW_TAG_subprogram ]
!993 = metadata !{i32 786478, i32 0, metadata !793, metadata !"operator++", metadata !"operator++", metadata !"_ZN11ap_int_baseILi64ELb0ELb1EEppEi", metadata !145, i32 1907, metadata !994, i1 false, i1 false, i32 0, i32 0, null, i32 256, i1 false, null, null, i32 0, metadata !157, i32 1907} ; [ DW_TAG_subprogram ]
!994 = metadata !{i32 786453, i32 0, metadata !"", i32 0, i32 0, i64 0, i64 0, i64 0, i32 0, null, metadata !995, i32 0, i32 0} ; [ DW_TAG_subroutine_type ]
!995 = metadata !{metadata !814, metadata !809, metadata !161}
!996 = metadata !{i32 786478, i32 0, metadata !793, metadata !"operator--", metadata !"operator--", metadata !"_ZN11ap_int_baseILi64ELb0ELb1EEmmEi", metadata !145, i32 1912, metadata !994, i1 false, i1 false, i32 0, i32 0, null, i32 256, i1 false, null, null, i32 0, metadata !157, i32 1912} ; [ DW_TAG_subprogram ]
!997 = metadata !{i32 786478, i32 0, metadata !793, metadata !"operator+", metadata !"operator+", metadata !"_ZNK11ap_int_baseILi64ELb0ELb1EEpsEv", metadata !145, i32 1921, metadata !998, i1 false, i1 false, i32 0, i32 0, null, i32 256, i1 false, null, null, i32 0, metadata !157, i32 1921} ; [ DW_TAG_subprogram ]
!998 = metadata !{i32 786453, i32 0, metadata !"", i32 0, i32 0, i64 0, i64 0, i64 0, i32 0, null, metadata !999, i32 0, i32 0} ; [ DW_TAG_subroutine_type ]
!999 = metadata !{metadata !793, metadata !926}
!1000 = metadata !{i32 786478, i32 0, metadata !793, metadata !"operator!", metadata !"operator!", metadata !"_ZNK11ap_int_baseILi64ELb0ELb1EEntEv", metadata !145, i32 1927, metadata !928, i1 false, i1 false, i32 0, i32 0, null, i32 256, i1 false, null, null, i32 0, metadata !157, i32 1927} ; [ DW_TAG_subprogram ]
!1001 = metadata !{i32 786478, i32 0, metadata !793, metadata !"operator-", metadata !"operator-", metadata !"_ZNK11ap_int_baseILi64ELb0ELb1EEngEv", metadata !145, i32 1932, metadata !1002, i1 false, i1 false, i32 0, i32 0, null, i32 256, i1 false, null, null, i32 0, metadata !157, i32 1932} ; [ DW_TAG_subprogram ]
!1002 = metadata !{i32 786453, i32 0, metadata !"", i32 0, i32 0, i64 0, i64 0, i64 0, i32 0, null, metadata !1003, i32 0, i32 0} ; [ DW_TAG_subroutine_type ]
!1003 = metadata !{metadata !1004, metadata !926}
!1004 = metadata !{i32 786434, null, metadata !"ap_int_base<64, true, true>", metadata !145, i32 1453, i64 64, i64 64, i32 0, i32 0, null, metadata !1005, i32 0, null, metadata !1243} ; [ DW_TAG_class_type ]
!1005 = metadata !{metadata !1006, metadata !1016, metadata !1020, metadata !1023, metadata !1026, metadata !1029, metadata !1032, metadata !1035, metadata !1038, metadata !1041, metadata !1044, metadata !1047, metadata !1050, metadata !1053, metadata !1056, metadata !1059, metadata !1062, metadata !1065, metadata !1068, metadata !1073, metadata !1078, metadata !1083, metadata !1084, metadata !1088, metadata !1091, metadata !1094, metadata !1097, metadata !1100, metadata !1103, metadata !1106, metadata !1109, metadata !1112, metadata !1115, metadata !1118, metadata !1121, metadata !1129, metadata !1132, metadata !1135, metadata !1138, metadata !1141, metadata !1144, metadata !1147, metadata !1150, metadata !1153, metadata !1156, metadata !1159, metadata !1162, metadata !1165, metadata !1166, metadata !1170, metadata !1173, metadata !1174, metadata !1175, metadata !1176, metadata !1177, metadata !1178, metadata !1181, metadata !1182, metadata !1185, metadata !1186, metadata !1187, metadata !1188, metadata !1189, metadata !1190, metadata !1193, metadata !1194, metadata !1195, metadata !1198, metadata !1199, metadata !1202, metadata !1203, metadata !1204, metadata !1208, metadata !1209, metadata !1212, metadata !1213, metadata !1217, metadata !1218, metadata !1219, metadata !1220, metadata !1223, metadata !1224, metadata !1225, metadata !1226, metadata !1227, metadata !1228, metadata !1229, metadata !1230, metadata !1231, metadata !1232, metadata !1233, metadata !1234, metadata !1237, metadata !1240}
!1006 = metadata !{i32 786460, metadata !1004, null, metadata !145, i32 0, i64 0, i64 0, i64 0, i32 0, metadata !1007} ; [ DW_TAG_inheritance ]
!1007 = metadata !{i32 786434, null, metadata !"ssdm_int<64 + 1024 * 0, true>", metadata !149, i32 68, i64 64, i64 64, i32 0, i32 0, null, metadata !1008, i32 0, null, metadata !1015} ; [ DW_TAG_class_type ]
!1008 = metadata !{metadata !1009, metadata !1011}
!1009 = metadata !{i32 786445, metadata !1007, metadata !"V", metadata !149, i32 68, i64 64, i64 64, i64 0, i32 0, metadata !1010} ; [ DW_TAG_member ]
!1010 = metadata !{i32 786468, null, metadata !"int64", null, i32 0, i64 64, i64 64, i64 0, i32 0, i32 5} ; [ DW_TAG_base_type ]
!1011 = metadata !{i32 786478, i32 0, metadata !1007, metadata !"ssdm_int", metadata !"ssdm_int", metadata !"", metadata !149, i32 68, metadata !1012, i1 false, i1 false, i32 0, i32 0, null, i32 256, i1 false, null, null, i32 0, metadata !157, i32 68} ; [ DW_TAG_subprogram ]
!1012 = metadata !{i32 786453, i32 0, metadata !"", i32 0, i32 0, i64 0, i64 0, i64 0, i32 0, null, metadata !1013, i32 0, i32 0} ; [ DW_TAG_subroutine_type ]
!1013 = metadata !{null, metadata !1014}
!1014 = metadata !{i32 786447, i32 0, metadata !"", i32 0, i32 0, i64 64, i64 64, i64 0, i32 64, metadata !1007} ; [ DW_TAG_pointer_type ]
!1015 = metadata !{metadata !805, metadata !396}
!1016 = metadata !{i32 786478, i32 0, metadata !1004, metadata !"ap_int_base", metadata !"ap_int_base", metadata !"", metadata !145, i32 1494, metadata !1017, i1 false, i1 false, i32 0, i32 0, null, i32 256, i1 false, null, null, i32 0, metadata !157, i32 1494} ; [ DW_TAG_subprogram ]
!1017 = metadata !{i32 786453, i32 0, metadata !"", i32 0, i32 0, i64 0, i64 0, i64 0, i32 0, null, metadata !1018, i32 0, i32 0} ; [ DW_TAG_subroutine_type ]
!1018 = metadata !{null, metadata !1019}
!1019 = metadata !{i32 786447, i32 0, metadata !"", i32 0, i32 0, i64 64, i64 64, i64 0, i32 64, metadata !1004} ; [ DW_TAG_pointer_type ]
!1020 = metadata !{i32 786478, i32 0, metadata !1004, metadata !"ap_int_base", metadata !"ap_int_base", metadata !"", metadata !145, i32 1516, metadata !1021, i1 false, i1 false, i32 0, i32 0, null, i32 384, i1 false, null, null, i32 0, metadata !157, i32 1516} ; [ DW_TAG_subprogram ]
!1021 = metadata !{i32 786453, i32 0, metadata !"", i32 0, i32 0, i64 0, i64 0, i64 0, i32 0, null, metadata !1022, i32 0, i32 0} ; [ DW_TAG_subroutine_type ]
!1022 = metadata !{null, metadata !1019, metadata !163}
!1023 = metadata !{i32 786478, i32 0, metadata !1004, metadata !"ap_int_base", metadata !"ap_int_base", metadata !"", metadata !145, i32 1517, metadata !1024, i1 false, i1 false, i32 0, i32 0, null, i32 384, i1 false, null, null, i32 0, metadata !157, i32 1517} ; [ DW_TAG_subprogram ]
!1024 = metadata !{i32 786453, i32 0, metadata !"", i32 0, i32 0, i64 0, i64 0, i64 0, i32 0, null, metadata !1025, i32 0, i32 0} ; [ DW_TAG_subroutine_type ]
!1025 = metadata !{null, metadata !1019, metadata !188}
!1026 = metadata !{i32 786478, i32 0, metadata !1004, metadata !"ap_int_base", metadata !"ap_int_base", metadata !"", metadata !145, i32 1518, metadata !1027, i1 false, i1 false, i32 0, i32 0, null, i32 384, i1 false, null, null, i32 0, metadata !157, i32 1518} ; [ DW_TAG_subprogram ]
!1027 = metadata !{i32 786453, i32 0, metadata !"", i32 0, i32 0, i64 0, i64 0, i64 0, i32 0, null, metadata !1028, i32 0, i32 0} ; [ DW_TAG_subroutine_type ]
!1028 = metadata !{null, metadata !1019, metadata !192}
!1029 = metadata !{i32 786478, i32 0, metadata !1004, metadata !"ap_int_base", metadata !"ap_int_base", metadata !"", metadata !145, i32 1519, metadata !1030, i1 false, i1 false, i32 0, i32 0, null, i32 384, i1 false, null, null, i32 0, metadata !157, i32 1519} ; [ DW_TAG_subprogram ]
!1030 = metadata !{i32 786453, i32 0, metadata !"", i32 0, i32 0, i64 0, i64 0, i64 0, i32 0, null, metadata !1031, i32 0, i32 0} ; [ DW_TAG_subroutine_type ]
!1031 = metadata !{null, metadata !1019, metadata !196}
!1032 = metadata !{i32 786478, i32 0, metadata !1004, metadata !"ap_int_base", metadata !"ap_int_base", metadata !"", metadata !145, i32 1520, metadata !1033, i1 false, i1 false, i32 0, i32 0, null, i32 384, i1 false, null, null, i32 0, metadata !157, i32 1520} ; [ DW_TAG_subprogram ]
!1033 = metadata !{i32 786453, i32 0, metadata !"", i32 0, i32 0, i64 0, i64 0, i64 0, i32 0, null, metadata !1034, i32 0, i32 0} ; [ DW_TAG_subroutine_type ]
!1034 = metadata !{null, metadata !1019, metadata !200}
!1035 = metadata !{i32 786478, i32 0, metadata !1004, metadata !"ap_int_base", metadata !"ap_int_base", metadata !"", metadata !145, i32 1521, metadata !1036, i1 false, i1 false, i32 0, i32 0, null, i32 384, i1 false, null, null, i32 0, metadata !157, i32 1521} ; [ DW_TAG_subprogram ]
!1036 = metadata !{i32 786453, i32 0, metadata !"", i32 0, i32 0, i64 0, i64 0, i64 0, i32 0, null, metadata !1037, i32 0, i32 0} ; [ DW_TAG_subroutine_type ]
!1037 = metadata !{null, metadata !1019, metadata !161}
!1038 = metadata !{i32 786478, i32 0, metadata !1004, metadata !"ap_int_base", metadata !"ap_int_base", metadata !"", metadata !145, i32 1522, metadata !1039, i1 false, i1 false, i32 0, i32 0, null, i32 384, i1 false, null, null, i32 0, metadata !157, i32 1522} ; [ DW_TAG_subprogram ]
!1039 = metadata !{i32 786453, i32 0, metadata !"", i32 0, i32 0, i64 0, i64 0, i64 0, i32 0, null, metadata !1040, i32 0, i32 0} ; [ DW_TAG_subroutine_type ]
!1040 = metadata !{null, metadata !1019, metadata !207}
!1041 = metadata !{i32 786478, i32 0, metadata !1004, metadata !"ap_int_base", metadata !"ap_int_base", metadata !"", metadata !145, i32 1523, metadata !1042, i1 false, i1 false, i32 0, i32 0, null, i32 384, i1 false, null, null, i32 0, metadata !157, i32 1523} ; [ DW_TAG_subprogram ]
!1042 = metadata !{i32 786453, i32 0, metadata !"", i32 0, i32 0, i64 0, i64 0, i64 0, i32 0, null, metadata !1043, i32 0, i32 0} ; [ DW_TAG_subroutine_type ]
!1043 = metadata !{null, metadata !1019, metadata !211}
!1044 = metadata !{i32 786478, i32 0, metadata !1004, metadata !"ap_int_base", metadata !"ap_int_base", metadata !"", metadata !145, i32 1524, metadata !1045, i1 false, i1 false, i32 0, i32 0, null, i32 384, i1 false, null, null, i32 0, metadata !157, i32 1524} ; [ DW_TAG_subprogram ]
!1045 = metadata !{i32 786453, i32 0, metadata !"", i32 0, i32 0, i64 0, i64 0, i64 0, i32 0, null, metadata !1046, i32 0, i32 0} ; [ DW_TAG_subroutine_type ]
!1046 = metadata !{null, metadata !1019, metadata !215}
!1047 = metadata !{i32 786478, i32 0, metadata !1004, metadata !"ap_int_base", metadata !"ap_int_base", metadata !"", metadata !145, i32 1525, metadata !1048, i1 false, i1 false, i32 0, i32 0, null, i32 384, i1 false, null, null, i32 0, metadata !157, i32 1525} ; [ DW_TAG_subprogram ]
!1048 = metadata !{i32 786453, i32 0, metadata !"", i32 0, i32 0, i64 0, i64 0, i64 0, i32 0, null, metadata !1049, i32 0, i32 0} ; [ DW_TAG_subroutine_type ]
!1049 = metadata !{null, metadata !1019, metadata !219}
!1050 = metadata !{i32 786478, i32 0, metadata !1004, metadata !"ap_int_base", metadata !"ap_int_base", metadata !"", metadata !145, i32 1526, metadata !1051, i1 false, i1 false, i32 0, i32 0, null, i32 384, i1 false, null, null, i32 0, metadata !157, i32 1526} ; [ DW_TAG_subprogram ]
!1051 = metadata !{i32 786453, i32 0, metadata !"", i32 0, i32 0, i64 0, i64 0, i64 0, i32 0, null, metadata !1052, i32 0, i32 0} ; [ DW_TAG_subroutine_type ]
!1052 = metadata !{null, metadata !1019, metadata !224}
!1053 = metadata !{i32 786478, i32 0, metadata !1004, metadata !"ap_int_base", metadata !"ap_int_base", metadata !"", metadata !145, i32 1527, metadata !1054, i1 false, i1 false, i32 0, i32 0, null, i32 384, i1 false, null, null, i32 0, metadata !157, i32 1527} ; [ DW_TAG_subprogram ]
!1054 = metadata !{i32 786453, i32 0, metadata !"", i32 0, i32 0, i64 0, i64 0, i64 0, i32 0, null, metadata !1055, i32 0, i32 0} ; [ DW_TAG_subroutine_type ]
!1055 = metadata !{null, metadata !1019, metadata !229}
!1056 = metadata !{i32 786478, i32 0, metadata !1004, metadata !"ap_int_base", metadata !"ap_int_base", metadata !"", metadata !145, i32 1528, metadata !1057, i1 false, i1 false, i32 0, i32 0, null, i32 384, i1 false, null, null, i32 0, metadata !157, i32 1528} ; [ DW_TAG_subprogram ]
!1057 = metadata !{i32 786453, i32 0, metadata !"", i32 0, i32 0, i64 0, i64 0, i64 0, i32 0, null, metadata !1058, i32 0, i32 0} ; [ DW_TAG_subroutine_type ]
!1058 = metadata !{null, metadata !1019, metadata !234}
!1059 = metadata !{i32 786478, i32 0, metadata !1004, metadata !"ap_int_base", metadata !"ap_int_base", metadata !"", metadata !145, i32 1529, metadata !1060, i1 false, i1 false, i32 0, i32 0, null, i32 384, i1 false, null, null, i32 0, metadata !157, i32 1529} ; [ DW_TAG_subprogram ]
!1060 = metadata !{i32 786453, i32 0, metadata !"", i32 0, i32 0, i64 0, i64 0, i64 0, i32 0, null, metadata !1061, i32 0, i32 0} ; [ DW_TAG_subroutine_type ]
!1061 = metadata !{null, metadata !1019, metadata !238}
!1062 = metadata !{i32 786478, i32 0, metadata !1004, metadata !"ap_int_base", metadata !"ap_int_base", metadata !"", metadata !145, i32 1556, metadata !1063, i1 false, i1 false, i32 0, i32 0, null, i32 256, i1 false, null, null, i32 0, metadata !157, i32 1556} ; [ DW_TAG_subprogram ]
!1063 = metadata !{i32 786453, i32 0, metadata !"", i32 0, i32 0, i64 0, i64 0, i64 0, i32 0, null, metadata !1064, i32 0, i32 0} ; [ DW_TAG_subroutine_type ]
!1064 = metadata !{null, metadata !1019, metadata !242}
!1065 = metadata !{i32 786478, i32 0, metadata !1004, metadata !"ap_int_base", metadata !"ap_int_base", metadata !"", metadata !145, i32 1563, metadata !1066, i1 false, i1 false, i32 0, i32 0, null, i32 256, i1 false, null, null, i32 0, metadata !157, i32 1563} ; [ DW_TAG_subprogram ]
!1066 = metadata !{i32 786453, i32 0, metadata !"", i32 0, i32 0, i64 0, i64 0, i64 0, i32 0, null, metadata !1067, i32 0, i32 0} ; [ DW_TAG_subroutine_type ]
!1067 = metadata !{null, metadata !1019, metadata !242, metadata !188}
!1068 = metadata !{i32 786478, i32 0, metadata !1004, metadata !"read", metadata !"read", metadata !"_ZNV11ap_int_baseILi64ELb1ELb1EE4readEv", metadata !145, i32 1584, metadata !1069, i1 false, i1 false, i32 0, i32 0, null, i32 256, i1 false, null, null, i32 0, metadata !157, i32 1584} ; [ DW_TAG_subprogram ]
!1069 = metadata !{i32 786453, i32 0, metadata !"", i32 0, i32 0, i64 0, i64 0, i64 0, i32 0, null, metadata !1070, i32 0, i32 0} ; [ DW_TAG_subroutine_type ]
!1070 = metadata !{metadata !1004, metadata !1071}
!1071 = metadata !{i32 786447, i32 0, metadata !"", i32 0, i32 0, i64 64, i64 64, i64 0, i32 64, metadata !1072} ; [ DW_TAG_pointer_type ]
!1072 = metadata !{i32 786485, null, metadata !"", null, i32 0, i64 0, i64 0, i64 0, i32 0, metadata !1004} ; [ DW_TAG_volatile_type ]
!1073 = metadata !{i32 786478, i32 0, metadata !1004, metadata !"write", metadata !"write", metadata !"_ZNV11ap_int_baseILi64ELb1ELb1EE5writeERKS0_", metadata !145, i32 1590, metadata !1074, i1 false, i1 false, i32 0, i32 0, null, i32 256, i1 false, null, null, i32 0, metadata !157, i32 1590} ; [ DW_TAG_subprogram ]
!1074 = metadata !{i32 786453, i32 0, metadata !"", i32 0, i32 0, i64 0, i64 0, i64 0, i32 0, null, metadata !1075, i32 0, i32 0} ; [ DW_TAG_subroutine_type ]
!1075 = metadata !{null, metadata !1071, metadata !1076}
!1076 = metadata !{i32 786448, null, null, null, i32 0, i64 0, i64 0, i64 0, i32 0, metadata !1077} ; [ DW_TAG_reference_type ]
!1077 = metadata !{i32 786470, null, metadata !"", null, i32 0, i64 0, i64 0, i64 0, i32 0, metadata !1004} ; [ DW_TAG_const_type ]
!1078 = metadata !{i32 786478, i32 0, metadata !1004, metadata !"operator=", metadata !"operator=", metadata !"_ZNV11ap_int_baseILi64ELb1ELb1EEaSERVKS0_", metadata !145, i32 1602, metadata !1079, i1 false, i1 false, i32 0, i32 0, null, i32 256, i1 false, null, null, i32 0, metadata !157, i32 1602} ; [ DW_TAG_subprogram ]
!1079 = metadata !{i32 786453, i32 0, metadata !"", i32 0, i32 0, i64 0, i64 0, i64 0, i32 0, null, metadata !1080, i32 0, i32 0} ; [ DW_TAG_subroutine_type ]
!1080 = metadata !{null, metadata !1071, metadata !1081}
!1081 = metadata !{i32 786448, null, null, null, i32 0, i64 0, i64 0, i64 0, i32 0, metadata !1082} ; [ DW_TAG_reference_type ]
!1082 = metadata !{i32 786470, null, metadata !"", null, i32 0, i64 0, i64 0, i64 0, i32 0, metadata !1072} ; [ DW_TAG_const_type ]
!1083 = metadata !{i32 786478, i32 0, metadata !1004, metadata !"operator=", metadata !"operator=", metadata !"_ZNV11ap_int_baseILi64ELb1ELb1EEaSERKS0_", metadata !145, i32 1611, metadata !1074, i1 false, i1 false, i32 0, i32 0, null, i32 256, i1 false, null, null, i32 0, metadata !157, i32 1611} ; [ DW_TAG_subprogram ]
!1084 = metadata !{i32 786478, i32 0, metadata !1004, metadata !"operator=", metadata !"operator=", metadata !"_ZN11ap_int_baseILi64ELb1ELb1EEaSERVKS0_", metadata !145, i32 1634, metadata !1085, i1 false, i1 false, i32 0, i32 0, null, i32 256, i1 false, null, null, i32 0, metadata !157, i32 1634} ; [ DW_TAG_subprogram ]
!1085 = metadata !{i32 786453, i32 0, metadata !"", i32 0, i32 0, i64 0, i64 0, i64 0, i32 0, null, metadata !1086, i32 0, i32 0} ; [ DW_TAG_subroutine_type ]
!1086 = metadata !{metadata !1087, metadata !1019, metadata !1081}
!1087 = metadata !{i32 786448, null, null, null, i32 0, i64 0, i64 0, i64 0, i32 0, metadata !1004} ; [ DW_TAG_reference_type ]
!1088 = metadata !{i32 786478, i32 0, metadata !1004, metadata !"operator=", metadata !"operator=", metadata !"_ZN11ap_int_baseILi64ELb1ELb1EEaSERKS0_", metadata !145, i32 1639, metadata !1089, i1 false, i1 false, i32 0, i32 0, null, i32 256, i1 false, null, null, i32 0, metadata !157, i32 1639} ; [ DW_TAG_subprogram ]
!1089 = metadata !{i32 786453, i32 0, metadata !"", i32 0, i32 0, i64 0, i64 0, i64 0, i32 0, null, metadata !1090, i32 0, i32 0} ; [ DW_TAG_subroutine_type ]
!1090 = metadata !{metadata !1087, metadata !1019, metadata !1076}
!1091 = metadata !{i32 786478, i32 0, metadata !1004, metadata !"operator=", metadata !"operator=", metadata !"_ZN11ap_int_baseILi64ELb1ELb1EEaSEPKc", metadata !145, i32 1643, metadata !1092, i1 false, i1 false, i32 0, i32 0, null, i32 256, i1 false, null, null, i32 0, metadata !157, i32 1643} ; [ DW_TAG_subprogram ]
!1092 = metadata !{i32 786453, i32 0, metadata !"", i32 0, i32 0, i64 0, i64 0, i64 0, i32 0, null, metadata !1093, i32 0, i32 0} ; [ DW_TAG_subroutine_type ]
!1093 = metadata !{metadata !1087, metadata !1019, metadata !242}
!1094 = metadata !{i32 786478, i32 0, metadata !1004, metadata !"set", metadata !"set", metadata !"_ZN11ap_int_baseILi64ELb1ELb1EE3setEPKca", metadata !145, i32 1651, metadata !1095, i1 false, i1 false, i32 0, i32 0, null, i32 256, i1 false, null, null, i32 0, metadata !157, i32 1651} ; [ DW_TAG_subprogram ]
!1095 = metadata !{i32 786453, i32 0, metadata !"", i32 0, i32 0, i64 0, i64 0, i64 0, i32 0, null, metadata !1096, i32 0, i32 0} ; [ DW_TAG_subroutine_type ]
!1096 = metadata !{metadata !1087, metadata !1019, metadata !242, metadata !188}
!1097 = metadata !{i32 786478, i32 0, metadata !1004, metadata !"operator=", metadata !"operator=", metadata !"_ZN11ap_int_baseILi64ELb1ELb1EEaSEa", metadata !145, i32 1665, metadata !1098, i1 false, i1 false, i32 0, i32 0, null, i32 256, i1 false, null, null, i32 0, metadata !157, i32 1665} ; [ DW_TAG_subprogram ]
!1098 = metadata !{i32 786453, i32 0, metadata !"", i32 0, i32 0, i64 0, i64 0, i64 0, i32 0, null, metadata !1099, i32 0, i32 0} ; [ DW_TAG_subroutine_type ]
!1099 = metadata !{metadata !1087, metadata !1019, metadata !188}
!1100 = metadata !{i32 786478, i32 0, metadata !1004, metadata !"operator=", metadata !"operator=", metadata !"_ZN11ap_int_baseILi64ELb1ELb1EEaSEh", metadata !145, i32 1666, metadata !1101, i1 false, i1 false, i32 0, i32 0, null, i32 256, i1 false, null, null, i32 0, metadata !157, i32 1666} ; [ DW_TAG_subprogram ]
!1101 = metadata !{i32 786453, i32 0, metadata !"", i32 0, i32 0, i64 0, i64 0, i64 0, i32 0, null, metadata !1102, i32 0, i32 0} ; [ DW_TAG_subroutine_type ]
!1102 = metadata !{metadata !1087, metadata !1019, metadata !192}
!1103 = metadata !{i32 786478, i32 0, metadata !1004, metadata !"operator=", metadata !"operator=", metadata !"_ZN11ap_int_baseILi64ELb1ELb1EEaSEs", metadata !145, i32 1667, metadata !1104, i1 false, i1 false, i32 0, i32 0, null, i32 256, i1 false, null, null, i32 0, metadata !157, i32 1667} ; [ DW_TAG_subprogram ]
!1104 = metadata !{i32 786453, i32 0, metadata !"", i32 0, i32 0, i64 0, i64 0, i64 0, i32 0, null, metadata !1105, i32 0, i32 0} ; [ DW_TAG_subroutine_type ]
!1105 = metadata !{metadata !1087, metadata !1019, metadata !196}
!1106 = metadata !{i32 786478, i32 0, metadata !1004, metadata !"operator=", metadata !"operator=", metadata !"_ZN11ap_int_baseILi64ELb1ELb1EEaSEt", metadata !145, i32 1668, metadata !1107, i1 false, i1 false, i32 0, i32 0, null, i32 256, i1 false, null, null, i32 0, metadata !157, i32 1668} ; [ DW_TAG_subprogram ]
!1107 = metadata !{i32 786453, i32 0, metadata !"", i32 0, i32 0, i64 0, i64 0, i64 0, i32 0, null, metadata !1108, i32 0, i32 0} ; [ DW_TAG_subroutine_type ]
!1108 = metadata !{metadata !1087, metadata !1019, metadata !200}
!1109 = metadata !{i32 786478, i32 0, metadata !1004, metadata !"operator=", metadata !"operator=", metadata !"_ZN11ap_int_baseILi64ELb1ELb1EEaSEi", metadata !145, i32 1669, metadata !1110, i1 false, i1 false, i32 0, i32 0, null, i32 256, i1 false, null, null, i32 0, metadata !157, i32 1669} ; [ DW_TAG_subprogram ]
!1110 = metadata !{i32 786453, i32 0, metadata !"", i32 0, i32 0, i64 0, i64 0, i64 0, i32 0, null, metadata !1111, i32 0, i32 0} ; [ DW_TAG_subroutine_type ]
!1111 = metadata !{metadata !1087, metadata !1019, metadata !161}
!1112 = metadata !{i32 786478, i32 0, metadata !1004, metadata !"operator=", metadata !"operator=", metadata !"_ZN11ap_int_baseILi64ELb1ELb1EEaSEj", metadata !145, i32 1670, metadata !1113, i1 false, i1 false, i32 0, i32 0, null, i32 256, i1 false, null, null, i32 0, metadata !157, i32 1670} ; [ DW_TAG_subprogram ]
!1113 = metadata !{i32 786453, i32 0, metadata !"", i32 0, i32 0, i64 0, i64 0, i64 0, i32 0, null, metadata !1114, i32 0, i32 0} ; [ DW_TAG_subroutine_type ]
!1114 = metadata !{metadata !1087, metadata !1019, metadata !207}
!1115 = metadata !{i32 786478, i32 0, metadata !1004, metadata !"operator=", metadata !"operator=", metadata !"_ZN11ap_int_baseILi64ELb1ELb1EEaSEx", metadata !145, i32 1671, metadata !1116, i1 false, i1 false, i32 0, i32 0, null, i32 256, i1 false, null, null, i32 0, metadata !157, i32 1671} ; [ DW_TAG_subprogram ]
!1116 = metadata !{i32 786453, i32 0, metadata !"", i32 0, i32 0, i64 0, i64 0, i64 0, i32 0, null, metadata !1117, i32 0, i32 0} ; [ DW_TAG_subroutine_type ]
!1117 = metadata !{metadata !1087, metadata !1019, metadata !219}
!1118 = metadata !{i32 786478, i32 0, metadata !1004, metadata !"operator=", metadata !"operator=", metadata !"_ZN11ap_int_baseILi64ELb1ELb1EEaSEy", metadata !145, i32 1672, metadata !1119, i1 false, i1 false, i32 0, i32 0, null, i32 256, i1 false, null, null, i32 0, metadata !157, i32 1672} ; [ DW_TAG_subprogram ]
!1119 = metadata !{i32 786453, i32 0, metadata !"", i32 0, i32 0, i64 0, i64 0, i64 0, i32 0, null, metadata !1120, i32 0, i32 0} ; [ DW_TAG_subroutine_type ]
!1120 = metadata !{metadata !1087, metadata !1019, metadata !224}
!1121 = metadata !{i32 786478, i32 0, metadata !1004, metadata !"operator long long", metadata !"operator long long", metadata !"_ZNK11ap_int_baseILi64ELb1ELb1EEcvxEv", metadata !145, i32 1710, metadata !1122, i1 false, i1 false, i32 0, i32 0, null, i32 256, i1 false, null, null, i32 0, metadata !157, i32 1710} ; [ DW_TAG_subprogram ]
!1122 = metadata !{i32 786453, i32 0, metadata !"", i32 0, i32 0, i64 0, i64 0, i64 0, i32 0, null, metadata !1123, i32 0, i32 0} ; [ DW_TAG_subroutine_type ]
!1123 = metadata !{metadata !1124, metadata !1128}
!1124 = metadata !{i32 786454, metadata !1004, metadata !"RetType", metadata !145, i32 1458, i64 0, i64 0, i64 0, i32 0, metadata !1125} ; [ DW_TAG_typedef ]
!1125 = metadata !{i32 786454, metadata !1126, metadata !"Type", metadata !145, i32 1415, i64 0, i64 0, i64 0, i32 0, metadata !219} ; [ DW_TAG_typedef ]
!1126 = metadata !{i32 786434, null, metadata !"retval<8, true>", metadata !145, i32 1414, i64 8, i64 8, i32 0, i32 0, null, metadata !302, i32 0, null, metadata !1127} ; [ DW_TAG_class_type ]
!1127 = metadata !{metadata !925, metadata !396}
!1128 = metadata !{i32 786447, i32 0, metadata !"", i32 0, i32 0, i64 64, i64 64, i64 0, i32 64, metadata !1077} ; [ DW_TAG_pointer_type ]
!1129 = metadata !{i32 786478, i32 0, metadata !1004, metadata !"to_bool", metadata !"to_bool", metadata !"_ZNK11ap_int_baseILi64ELb1ELb1EE7to_boolEv", metadata !145, i32 1716, metadata !1130, i1 false, i1 false, i32 0, i32 0, null, i32 256, i1 false, null, null, i32 0, metadata !157, i32 1716} ; [ DW_TAG_subprogram ]
!1130 = metadata !{i32 786453, i32 0, metadata !"", i32 0, i32 0, i64 0, i64 0, i64 0, i32 0, null, metadata !1131, i32 0, i32 0} ; [ DW_TAG_subroutine_type ]
!1131 = metadata !{metadata !163, metadata !1128}
!1132 = metadata !{i32 786478, i32 0, metadata !1004, metadata !"to_uchar", metadata !"to_uchar", metadata !"_ZNK11ap_int_baseILi64ELb1ELb1EE8to_ucharEv", metadata !145, i32 1717, metadata !1133, i1 false, i1 false, i32 0, i32 0, null, i32 256, i1 false, null, null, i32 0, metadata !157, i32 1717} ; [ DW_TAG_subprogram ]
!1133 = metadata !{i32 786453, i32 0, metadata !"", i32 0, i32 0, i64 0, i64 0, i64 0, i32 0, null, metadata !1134, i32 0, i32 0} ; [ DW_TAG_subroutine_type ]
!1134 = metadata !{metadata !192, metadata !1128}
!1135 = metadata !{i32 786478, i32 0, metadata !1004, metadata !"to_char", metadata !"to_char", metadata !"_ZNK11ap_int_baseILi64ELb1ELb1EE7to_charEv", metadata !145, i32 1718, metadata !1136, i1 false, i1 false, i32 0, i32 0, null, i32 256, i1 false, null, null, i32 0, metadata !157, i32 1718} ; [ DW_TAG_subprogram ]
!1136 = metadata !{i32 786453, i32 0, metadata !"", i32 0, i32 0, i64 0, i64 0, i64 0, i32 0, null, metadata !1137, i32 0, i32 0} ; [ DW_TAG_subroutine_type ]
!1137 = metadata !{metadata !188, metadata !1128}
!1138 = metadata !{i32 786478, i32 0, metadata !1004, metadata !"to_ushort", metadata !"to_ushort", metadata !"_ZNK11ap_int_baseILi64ELb1ELb1EE9to_ushortEv", metadata !145, i32 1719, metadata !1139, i1 false, i1 false, i32 0, i32 0, null, i32 256, i1 false, null, null, i32 0, metadata !157, i32 1719} ; [ DW_TAG_subprogram ]
!1139 = metadata !{i32 786453, i32 0, metadata !"", i32 0, i32 0, i64 0, i64 0, i64 0, i32 0, null, metadata !1140, i32 0, i32 0} ; [ DW_TAG_subroutine_type ]
!1140 = metadata !{metadata !200, metadata !1128}
!1141 = metadata !{i32 786478, i32 0, metadata !1004, metadata !"to_short", metadata !"to_short", metadata !"_ZNK11ap_int_baseILi64ELb1ELb1EE8to_shortEv", metadata !145, i32 1720, metadata !1142, i1 false, i1 false, i32 0, i32 0, null, i32 256, i1 false, null, null, i32 0, metadata !157, i32 1720} ; [ DW_TAG_subprogram ]
!1142 = metadata !{i32 786453, i32 0, metadata !"", i32 0, i32 0, i64 0, i64 0, i64 0, i32 0, null, metadata !1143, i32 0, i32 0} ; [ DW_TAG_subroutine_type ]
!1143 = metadata !{metadata !196, metadata !1128}
!1144 = metadata !{i32 786478, i32 0, metadata !1004, metadata !"to_int", metadata !"to_int", metadata !"_ZNK11ap_int_baseILi64ELb1ELb1EE6to_intEv", metadata !145, i32 1721, metadata !1145, i1 false, i1 false, i32 0, i32 0, null, i32 256, i1 false, null, null, i32 0, metadata !157, i32 1721} ; [ DW_TAG_subprogram ]
!1145 = metadata !{i32 786453, i32 0, metadata !"", i32 0, i32 0, i64 0, i64 0, i64 0, i32 0, null, metadata !1146, i32 0, i32 0} ; [ DW_TAG_subroutine_type ]
!1146 = metadata !{metadata !161, metadata !1128}
!1147 = metadata !{i32 786478, i32 0, metadata !1004, metadata !"to_uint", metadata !"to_uint", metadata !"_ZNK11ap_int_baseILi64ELb1ELb1EE7to_uintEv", metadata !145, i32 1722, metadata !1148, i1 false, i1 false, i32 0, i32 0, null, i32 256, i1 false, null, null, i32 0, metadata !157, i32 1722} ; [ DW_TAG_subprogram ]
!1148 = metadata !{i32 786453, i32 0, metadata !"", i32 0, i32 0, i64 0, i64 0, i64 0, i32 0, null, metadata !1149, i32 0, i32 0} ; [ DW_TAG_subroutine_type ]
!1149 = metadata !{metadata !207, metadata !1128}
!1150 = metadata !{i32 786478, i32 0, metadata !1004, metadata !"to_long", metadata !"to_long", metadata !"_ZNK11ap_int_baseILi64ELb1ELb1EE7to_longEv", metadata !145, i32 1723, metadata !1151, i1 false, i1 false, i32 0, i32 0, null, i32 256, i1 false, null, null, i32 0, metadata !157, i32 1723} ; [ DW_TAG_subprogram ]
!1151 = metadata !{i32 786453, i32 0, metadata !"", i32 0, i32 0, i64 0, i64 0, i64 0, i32 0, null, metadata !1152, i32 0, i32 0} ; [ DW_TAG_subroutine_type ]
!1152 = metadata !{metadata !211, metadata !1128}
!1153 = metadata !{i32 786478, i32 0, metadata !1004, metadata !"to_ulong", metadata !"to_ulong", metadata !"_ZNK11ap_int_baseILi64ELb1ELb1EE8to_ulongEv", metadata !145, i32 1724, metadata !1154, i1 false, i1 false, i32 0, i32 0, null, i32 256, i1 false, null, null, i32 0, metadata !157, i32 1724} ; [ DW_TAG_subprogram ]
!1154 = metadata !{i32 786453, i32 0, metadata !"", i32 0, i32 0, i64 0, i64 0, i64 0, i32 0, null, metadata !1155, i32 0, i32 0} ; [ DW_TAG_subroutine_type ]
!1155 = metadata !{metadata !215, metadata !1128}
!1156 = metadata !{i32 786478, i32 0, metadata !1004, metadata !"to_int64", metadata !"to_int64", metadata !"_ZNK11ap_int_baseILi64ELb1ELb1EE8to_int64Ev", metadata !145, i32 1725, metadata !1157, i1 false, i1 false, i32 0, i32 0, null, i32 256, i1 false, null, null, i32 0, metadata !157, i32 1725} ; [ DW_TAG_subprogram ]
!1157 = metadata !{i32 786453, i32 0, metadata !"", i32 0, i32 0, i64 0, i64 0, i64 0, i32 0, null, metadata !1158, i32 0, i32 0} ; [ DW_TAG_subroutine_type ]
!1158 = metadata !{metadata !219, metadata !1128}
!1159 = metadata !{i32 786478, i32 0, metadata !1004, metadata !"to_uint64", metadata !"to_uint64", metadata !"_ZNK11ap_int_baseILi64ELb1ELb1EE9to_uint64Ev", metadata !145, i32 1726, metadata !1160, i1 false, i1 false, i32 0, i32 0, null, i32 256, i1 false, null, null, i32 0, metadata !157, i32 1726} ; [ DW_TAG_subprogram ]
!1160 = metadata !{i32 786453, i32 0, metadata !"", i32 0, i32 0, i64 0, i64 0, i64 0, i32 0, null, metadata !1161, i32 0, i32 0} ; [ DW_TAG_subroutine_type ]
!1161 = metadata !{metadata !224, metadata !1128}
!1162 = metadata !{i32 786478, i32 0, metadata !1004, metadata !"to_double", metadata !"to_double", metadata !"_ZNK11ap_int_baseILi64ELb1ELb1EE9to_doubleEv", metadata !145, i32 1727, metadata !1163, i1 false, i1 false, i32 0, i32 0, null, i32 256, i1 false, null, null, i32 0, metadata !157, i32 1727} ; [ DW_TAG_subprogram ]
!1163 = metadata !{i32 786453, i32 0, metadata !"", i32 0, i32 0, i64 0, i64 0, i64 0, i32 0, null, metadata !1164, i32 0, i32 0} ; [ DW_TAG_subroutine_type ]
!1164 = metadata !{metadata !238, metadata !1128}
!1165 = metadata !{i32 786478, i32 0, metadata !1004, metadata !"length", metadata !"length", metadata !"_ZNK11ap_int_baseILi64ELb1ELb1EE6lengthEv", metadata !145, i32 1741, metadata !1145, i1 false, i1 false, i32 0, i32 0, null, i32 256, i1 false, null, null, i32 0, metadata !157, i32 1741} ; [ DW_TAG_subprogram ]
!1166 = metadata !{i32 786478, i32 0, metadata !1004, metadata !"length", metadata !"length", metadata !"_ZNVK11ap_int_baseILi64ELb1ELb1EE6lengthEv", metadata !145, i32 1742, metadata !1167, i1 false, i1 false, i32 0, i32 0, null, i32 256, i1 false, null, null, i32 0, metadata !157, i32 1742} ; [ DW_TAG_subprogram ]
!1167 = metadata !{i32 786453, i32 0, metadata !"", i32 0, i32 0, i64 0, i64 0, i64 0, i32 0, null, metadata !1168, i32 0, i32 0} ; [ DW_TAG_subroutine_type ]
!1168 = metadata !{metadata !161, metadata !1169}
!1169 = metadata !{i32 786447, i32 0, metadata !"", i32 0, i32 0, i64 64, i64 64, i64 0, i32 64, metadata !1082} ; [ DW_TAG_pointer_type ]
!1170 = metadata !{i32 786478, i32 0, metadata !1004, metadata !"reverse", metadata !"reverse", metadata !"_ZN11ap_int_baseILi64ELb1ELb1EE7reverseEv", metadata !145, i32 1747, metadata !1171, i1 false, i1 false, i32 0, i32 0, null, i32 256, i1 false, null, null, i32 0, metadata !157, i32 1747} ; [ DW_TAG_subprogram ]
!1171 = metadata !{i32 786453, i32 0, metadata !"", i32 0, i32 0, i64 0, i64 0, i64 0, i32 0, null, metadata !1172, i32 0, i32 0} ; [ DW_TAG_subroutine_type ]
!1172 = metadata !{metadata !1087, metadata !1019}
!1173 = metadata !{i32 786478, i32 0, metadata !1004, metadata !"iszero", metadata !"iszero", metadata !"_ZNK11ap_int_baseILi64ELb1ELb1EE6iszeroEv", metadata !145, i32 1753, metadata !1130, i1 false, i1 false, i32 0, i32 0, null, i32 256, i1 false, null, null, i32 0, metadata !157, i32 1753} ; [ DW_TAG_subprogram ]
!1174 = metadata !{i32 786478, i32 0, metadata !1004, metadata !"is_zero", metadata !"is_zero", metadata !"_ZNK11ap_int_baseILi64ELb1ELb1EE7is_zeroEv", metadata !145, i32 1758, metadata !1130, i1 false, i1 false, i32 0, i32 0, null, i32 256, i1 false, null, null, i32 0, metadata !157, i32 1758} ; [ DW_TAG_subprogram ]
!1175 = metadata !{i32 786478, i32 0, metadata !1004, metadata !"sign", metadata !"sign", metadata !"_ZNK11ap_int_baseILi64ELb1ELb1EE4signEv", metadata !145, i32 1763, metadata !1130, i1 false, i1 false, i32 0, i32 0, null, i32 256, i1 false, null, null, i32 0, metadata !157, i32 1763} ; [ DW_TAG_subprogram ]
!1176 = metadata !{i32 786478, i32 0, metadata !1004, metadata !"clear", metadata !"clear", metadata !"_ZN11ap_int_baseILi64ELb1ELb1EE5clearEi", metadata !145, i32 1771, metadata !1036, i1 false, i1 false, i32 0, i32 0, null, i32 256, i1 false, null, null, i32 0, metadata !157, i32 1771} ; [ DW_TAG_subprogram ]
!1177 = metadata !{i32 786478, i32 0, metadata !1004, metadata !"invert", metadata !"invert", metadata !"_ZN11ap_int_baseILi64ELb1ELb1EE6invertEi", metadata !145, i32 1777, metadata !1036, i1 false, i1 false, i32 0, i32 0, null, i32 256, i1 false, null, null, i32 0, metadata !157, i32 1777} ; [ DW_TAG_subprogram ]
!1178 = metadata !{i32 786478, i32 0, metadata !1004, metadata !"test", metadata !"test", metadata !"_ZNK11ap_int_baseILi64ELb1ELb1EE4testEi", metadata !145, i32 1785, metadata !1179, i1 false, i1 false, i32 0, i32 0, null, i32 256, i1 false, null, null, i32 0, metadata !157, i32 1785} ; [ DW_TAG_subprogram ]
!1179 = metadata !{i32 786453, i32 0, metadata !"", i32 0, i32 0, i64 0, i64 0, i64 0, i32 0, null, metadata !1180, i32 0, i32 0} ; [ DW_TAG_subroutine_type ]
!1180 = metadata !{metadata !163, metadata !1128, metadata !161}
!1181 = metadata !{i32 786478, i32 0, metadata !1004, metadata !"set", metadata !"set", metadata !"_ZN11ap_int_baseILi64ELb1ELb1EE3setEi", metadata !145, i32 1791, metadata !1036, i1 false, i1 false, i32 0, i32 0, null, i32 256, i1 false, null, null, i32 0, metadata !157, i32 1791} ; [ DW_TAG_subprogram ]
!1182 = metadata !{i32 786478, i32 0, metadata !1004, metadata !"set", metadata !"set", metadata !"_ZN11ap_int_baseILi64ELb1ELb1EE3setEib", metadata !145, i32 1797, metadata !1183, i1 false, i1 false, i32 0, i32 0, null, i32 256, i1 false, null, null, i32 0, metadata !157, i32 1797} ; [ DW_TAG_subprogram ]
!1183 = metadata !{i32 786453, i32 0, metadata !"", i32 0, i32 0, i64 0, i64 0, i64 0, i32 0, null, metadata !1184, i32 0, i32 0} ; [ DW_TAG_subroutine_type ]
!1184 = metadata !{null, metadata !1019, metadata !161, metadata !163}
!1185 = metadata !{i32 786478, i32 0, metadata !1004, metadata !"lrotate", metadata !"lrotate", metadata !"_ZN11ap_int_baseILi64ELb1ELb1EE7lrotateEi", metadata !145, i32 1804, metadata !1036, i1 false, i1 false, i32 0, i32 0, null, i32 256, i1 false, null, null, i32 0, metadata !157, i32 1804} ; [ DW_TAG_subprogram ]
!1186 = metadata !{i32 786478, i32 0, metadata !1004, metadata !"rrotate", metadata !"rrotate", metadata !"_ZN11ap_int_baseILi64ELb1ELb1EE7rrotateEi", metadata !145, i32 1813, metadata !1036, i1 false, i1 false, i32 0, i32 0, null, i32 256, i1 false, null, null, i32 0, metadata !157, i32 1813} ; [ DW_TAG_subprogram ]
!1187 = metadata !{i32 786478, i32 0, metadata !1004, metadata !"set_bit", metadata !"set_bit", metadata !"_ZN11ap_int_baseILi64ELb1ELb1EE7set_bitEib", metadata !145, i32 1821, metadata !1183, i1 false, i1 false, i32 0, i32 0, null, i32 256, i1 false, null, null, i32 0, metadata !157, i32 1821} ; [ DW_TAG_subprogram ]
!1188 = metadata !{i32 786478, i32 0, metadata !1004, metadata !"get_bit", metadata !"get_bit", metadata !"_ZNK11ap_int_baseILi64ELb1ELb1EE7get_bitEi", metadata !145, i32 1826, metadata !1179, i1 false, i1 false, i32 0, i32 0, null, i32 256, i1 false, null, null, i32 0, metadata !157, i32 1826} ; [ DW_TAG_subprogram ]
!1189 = metadata !{i32 786478, i32 0, metadata !1004, metadata !"b_not", metadata !"b_not", metadata !"_ZN11ap_int_baseILi64ELb1ELb1EE5b_notEv", metadata !145, i32 1831, metadata !1017, i1 false, i1 false, i32 0, i32 0, null, i32 256, i1 false, null, null, i32 0, metadata !157, i32 1831} ; [ DW_TAG_subprogram ]
!1190 = metadata !{i32 786478, i32 0, metadata !1004, metadata !"countLeadingZeros", metadata !"countLeadingZeros", metadata !"_ZN11ap_int_baseILi64ELb1ELb1EE17countLeadingZerosEv", metadata !145, i32 1838, metadata !1191, i1 false, i1 false, i32 0, i32 0, null, i32 256, i1 false, null, null, i32 0, metadata !157, i32 1838} ; [ DW_TAG_subprogram ]
!1191 = metadata !{i32 786453, i32 0, metadata !"", i32 0, i32 0, i64 0, i64 0, i64 0, i32 0, null, metadata !1192, i32 0, i32 0} ; [ DW_TAG_subroutine_type ]
!1192 = metadata !{metadata !161, metadata !1019}
!1193 = metadata !{i32 786478, i32 0, metadata !1004, metadata !"operator++", metadata !"operator++", metadata !"_ZN11ap_int_baseILi64ELb1ELb1EEppEv", metadata !145, i32 1895, metadata !1171, i1 false, i1 false, i32 0, i32 0, null, i32 256, i1 false, null, null, i32 0, metadata !157, i32 1895} ; [ DW_TAG_subprogram ]
!1194 = metadata !{i32 786478, i32 0, metadata !1004, metadata !"operator--", metadata !"operator--", metadata !"_ZN11ap_int_baseILi64ELb1ELb1EEmmEv", metadata !145, i32 1899, metadata !1171, i1 false, i1 false, i32 0, i32 0, null, i32 256, i1 false, null, null, i32 0, metadata !157, i32 1899} ; [ DW_TAG_subprogram ]
!1195 = metadata !{i32 786478, i32 0, metadata !1004, metadata !"operator++", metadata !"operator++", metadata !"_ZN11ap_int_baseILi64ELb1ELb1EEppEi", metadata !145, i32 1907, metadata !1196, i1 false, i1 false, i32 0, i32 0, null, i32 256, i1 false, null, null, i32 0, metadata !157, i32 1907} ; [ DW_TAG_subprogram ]
!1196 = metadata !{i32 786453, i32 0, metadata !"", i32 0, i32 0, i64 0, i64 0, i64 0, i32 0, null, metadata !1197, i32 0, i32 0} ; [ DW_TAG_subroutine_type ]
!1197 = metadata !{metadata !1077, metadata !1019, metadata !161}
